(lp0
(lp1
(I9
F0.1034
tp2
a(lp3
(I3
F0.0779
tp4
a(lp5
(I13
F0.0593
tp6
a(lp7
(I7
F0.013
tp8
a(lp9
(I5
F0.0319
tp10
a(lp11
(I5
F0.0039
tp12
a(lp13
(I9
F0.011
tp14
a(lp15
(I15
F0.0016
tp16
a(lp17
(I0
F0.3171
tp18
a(F824.0
F4.0
tp19
a(F1004.0
F0.0
tp20
aa(F1132.0
F12.0
tp21
aa(F828.0
F20.0
tp22
aa(F1529.0
F34.0
tp23
aa(F768.0
F43.0
tp24
aa(lp25
(I1
F0.0607
tp26
a(lp27
(I13
F0.0319
tp28
a(lp29
(I3
F0.019
tp30
a(lp31
(I2
F0.4795
tp32
a(lp33
(I3
F-0.0105
tp34
a(F1027.0
F47.0
tp35
a(F792.0
F21.0
tp36
aa(F765.0
F16.0
tp37
aa(lp38
(I8
F0.3115
tp39
a(F773.0
F32.0
tp40
a(F921.0
F58.0
tp41
aaa(lp42
(I15
F0.0402
tp43
a(F907.0
F42.0
tp44
a(F1371.0
F128.0
tp45
aaa(F798.0
F95.0
tp46
aaa(lp47
(I7
F0.065
tp48
a(lp49
(I14
F0.3837
tp50
a(F1135.0
F102.0
tp51
a(F681.0
F124.0
tp52
aa(lp53
(I2
F0.2106
tp54
a(F765.0
F115.0
tp55
a(F640.0
F200.0
tp56
aaaa(lp57
(I2
F0.0038
tp58
a(lp59
(I11
F0.0796
tp60
a(F749.0
F104.0
tp61
a(F685.0
F111.0
tp62
aa(lp63
(I7
F0.1125
tp64
a(lp65
(I12
F0.5588
tp66
a(lp67
(I3
F0.1216
tp68
a(F710.0
F76.0
tp69
a(F695.0
F170.0
tp70
aa(F967.0
F364.0
tp71
aa(F558.0
F333.0
tp72
aaaa(lp73
(I4
F0.406
tp74
a(lp75
(I12
F0.0189
tp76
a(lp77
(I14
F0.0048
tp78
a(lp79
(I3
F0.1114
tp80
a(F1361.0
F143.0
tp81
a(lp82
(I7
F0.1452
tp83
a(F925.0
F262.0
tp84
a(F945.0
F147.0
tp85
aaa(F545.0
F273.0
tp86
aa(lp87
(I13
F0.1675
tp88
a(lp89
(I14
F0.2754
tp90
a(F827.0
F214.0
tp91
a(F602.0
F337.0
tp92
aa(F345.0
F427.0
tp93
aaa(lp94
(I3
F0.1881
tp95
a(lp96
(I7
F0.1456
tp97
a(lp98
(I7
F0.0871
tp99
a(F690.0
F322.0
tp100
a(F758.0
F531.0
tp101
aa(F341.0
F710.0
tp102
aa(lp103
(I5
F0.2562
tp104
a(F335.0
F848.0
tp105
a(F106.0
F1191.0
tp106
aaaaa(lp107
(I13
F0.1203
tp108
a(lp109
(I1
F0.0676
tp110
a(lp111
(I9
F0.055
tp112
a(lp113
(I7
F0.0358
tp114
a(lp115
(I11
F0.056
tp116
a(lp117
(I3
F0.0074
tp118
a(lp119
(I5
F0.0102
tp120
a(lp121
(I7
F0.01
tp122
a(lp123
(I3
F-0.0096
tp124
a(lp125
(I10
F0.6795
tp126
a(F1.552
F1.0
tp127
a(F771.0
F6.0
tp128
aa(F897.0
F12.0
tp129
aa(F779.0
F19.0
tp130
aa(F802.0
F24.0
tp131
aa(lp132
(I15
F0.0263
tp133
a(lp134
(I14
F0.3223
tp135
a(F1463.0
F26.0
tp136
a(F769.0
F32.0
tp137
aa(F1099.0
F66.0
tp138
aaa(F828.0
F59.0
tp139
aa(lp140
(I5
F0.0532
tp141
a(lp142
(I9
F0.0157
tp143
a(lp144
(I14
F0.2312
tp145
a(F924.0
F14.0
tp146
a(F752.0
F37.0
tp147
aa(lp148
(I9
F0.0361
tp149
a(F794.0
F55.0
tp150
a(F723.0
F75.0
tp151
aaa(F1033.0
F141.0
tp152
aaa(lp153
(I14
F0.8916
tp154
a(lp155
(I10
F0.1187
tp156
a(F1038.0
F91.0
tp157
a(F1118.0
F189.0
tp158
aa(F777.0
F175.0
tp159
aaa(lp160
(I9
F0.0929
tp161
a(lp162
(I7
F0.1176
tp163
a(lp164
(I0
F1.5315
tp165
a(lp166
(I5
F0.0704
tp167
a(F1027.0
F89.0
tp168
a(lp169
(I4
F0.2515
tp170
a(F961.0
F111.0
tp171
a(F964.0
F200.0
tp172
aaa(F655.0
F174.0
tp173
aa(F706.0
F249.0
tp174
aa(lp175
(I10
F0.3692
tp176
a(lp177
(I2
F0.0606
tp178
a(F1035.0
F200.0
tp179
a(F590.0
F225.0
tp180
aa(lp181
(I5
F0.1098
tp182
a(F795.0
F350.0
tp183
a(F469.0
F363.0
tp184
aaaaa(lp185
(I4
F0.4424
tp186
a(lp187
(I10
F0.0033
tp188
a(lp189
(I5
F0.1149
tp190
a(F1176.0
F104.0
tp191
a(lp192
(I1
F0.1851
tp193
a(F836.0
F261.0
tp194
a(F698.0
F137.0
tp195
aaa(lp196
(I13
F0.1722
tp197
a(F944.0
F476.0
tp198
a(F360.0
F439.0
tp199
aaa(lp200
(I9
F0.2272
tp201
a(lp202
(I5
F0.1502
tp203
a(F729.0
F523.0
tp204
a(lp205
(I6
F1.2616
tp206
a(F374.0
F586.0
tp207
a(F198.0
F650.0
tp208
aaa(lp209
(I7
F0.2896
tp210
a(F130.0
F668.0
tp211
a(F51.0
F816.0
tp212
aaaaa(lp213
(I1
F0.1207
tp214
a(lp215
(I9
F0.0551
tp216
a(lp217
(I3
F0.0406
tp218
a(lp219
(I13
F0.0576
tp220
a(lp221
(I1
F0.0149
tp222
a(lp223
(I7
F0.0291
tp224
a(lp225
(I5
F0.0074
tp226
a(lp227
(I11
F0.0146
tp228
a(lp229
(I6
F0.0182
tp230
a(F1334.0
F12.0
tp231
a(lp232
(I4
F0.4513
tp233
a(F773.0
F2.0
tp234
a(F1.181
F1.0
tp235
aaa(F816.0
F16.0
tp236
aa(F1217.0
F28.0
tp237
aa(lp238
(I4
F0.1372
tp239
a(F1115.0
F37.0
tp240
a(F725.0
F41.0
tp241
aaa(lp242
(I11
F0.035
tp243
a(lp244
(I0
F0.8405
tp245
a(F1517.0
F67.0
tp246
a(F882.0
F20.0
tp247
aa(F879.0
F59.0
tp248
aaa(F902.0
F98.0
tp249
aa(lp250
(I12
F0.2748
tp251
a(lp252
(I1
F0.0599
tp253
a(F807.0
F51.0
tp254
a(F864.0
F92.0
tp255
aa(lp256
(I15
F0.0447
tp257
a(F1097.0
F96.0
tp258
a(F648.0
F149.0
tp259
aaaa(lp260
(I12
F0.3274
tp261
a(lp262
(I4
F0.0664
tp263
a(lp264
(I14
F0.0704
tp265
a(lp266
(I11
F0.1266
tp267
a(lp268
(I1
F0.0674
tp269
a(F826.0
F31.0
tp270
a(F733.0
F71.0
tp271
aa(F995.0
F156.0
tp272
aa(F748.0
F147.0
tp273
aa(F1055.0
F246.0
tp274
aa(lp275
(I13
F0.0958
tp276
a(lp277
(I15
F0.0781
tp278
a(lp279
(I9
F0.0789
tp280
a(F1171.0
F129.0
tp281
a(F636.0
F156.0
tp282
aa(F620.0
F207.0
tp283
aa(lp284
(I8
F1.1747
tp285
a(F890.0
F414.0
tp286
a(F455.0
F340.0
tp287
aaaaa(lp288
(I10
F0.4307
tp289
a(lp290
(I4
F0.0514
tp291
a(lp292
(I14
F0.0006
tp293
a(lp294
(I5
F0.165
tp295
a(F1265.0
F246.0
tp296
a(F934.0
F131.0
tp297
aa(F549.0
F290.0
tp298
aa(lp299
(I7
F0.1226
tp300
a(F785.0
F285.0
tp301
a(F557.0
F555.0
tp302
aaa(lp303
(I13
F0.1617
tp304
a(lp305
(I13
F0.1041
tp306
a(F604.0
F303.0
tp307
a(F745.0
F793.0
tp308
aa(lp309
(I3
F0.2203
tp310
a(F392.0
F907.0
tp311
a(F142.0
F1425.0
tp312
aaaaa(lp313
(I10
F2.3432
tp314
a(lp315
(I5
F0.1277
tp316
a(lp317
(I3
F0.0694
tp318
a(lp319
(I15
F0.0645
tp320
a(lp321
(I5
F0.0133
tp322
a(lp323
(I11
F0.0277
tp324
a(lp325
(I1
F0.0079
tp326
a(lp327
(I6
F0.1171
tp328
a(F1487.0
F14.0
tp329
a(lp330
(I5
F-0.0129
tp331
a(F1226.0
F0.0
tp332
a(F1119.0
F6.0
tp333
aaa(F890.0
F14.0
tp334
aa(F1219.0
F70.0
tp335
aa(lp336
(I9
F0.0697
tp337
a(lp338
(I15
F0.0043
tp339
a(lp340
(I8
F0.2352
tp341
a(F810.0
F15.0
tp342
a(F828.0
F29.0
tp343
aa(lp344
(I5
F0.0532
tp345
a(lp346
(I3
F0.0277
tp347
a(F1519.0
F60.0
tp348
a(lp349
(I5
F0.0381
tp350
a(F760.0
F67.0
tp351
a(F773.0
F31.0
tp352
aaa(F933.0
F94.0
tp353
aaa(F868.0
F133.0
tp354
aaa(lp355
(I14
F0.8602
tp356
a(lp357
(I4
F0.0923
tp358
a(lp359
(I3
F0.0274
tp360
a(F1481.0
F49.0
tp361
a(F836.0
F73.0
tp362
aa(F701.0
F119.0
tp363
aa(lp364
(I15
F0.0877
tp365
a(F728.0
F88.0
tp366
a(F658.0
F228.0
tp367
aaaa(lp368
(I13
F0.0694
tp369
a(lp370
(I11
F0.1201
tp371
a(lp372
(I8
F0.3527
tp373
a(F1277.0
F104.0
tp374
a(F843.0
F128.0
tp375
aa(F614.0
F190.0
tp376
aa(lp377
(I4
F0.0158
tp378
a(lp379
(I11
F0.1308
tp380
a(F1090.0
F152.0
tp381
a(F771.0
F202.0
tp382
aa(lp383
(I7
F0.1121
tp384
a(lp385
(I10
F1.1621
tp386
a(lp387
(I9
F0.1017
tp388
a(F606.0
F182.0
tp389
a(F578.0
F214.0
tp390
aa(F536.0
F233.0
tp391
aa(F491.0
F301.0
tp392
aaaaa(lp393
(I14
F0.9769
tp394
a(lp395
(I4
F0.1178
tp396
a(lp397
(I10
F0.0018
tp398
a(lp399
(I3
F0.1503
tp400
a(F750.0
F96.0
tp401
a(F1199.0
F241.0
tp402
aa(F571.0
F260.0
tp403
aa(lp404
(I7
F0.1295
tp405
a(F998.0
F599.0
tp406
a(F713.0
F884.0
tp407
aaa(lp408
(I6
F1.7111
tp409
a(F342.0
F822.0
tp410
a(F147.0
F590.0
tp411
aaaa(lp412
(I13
F0.1785
tp413
a(F462.0
F331.0
tp414
a(F98.0
F919.0
tp415
aaa(lp416
(I5
F0.1336
tp417
a(lp418
(I3
F0.0718
tp419
a(lp420
(I13
F0.0552
tp421
a(lp422
(I5
F0.0243
tp423
a(lp424
(I11
F0.0601
tp425
a(lp426
(I5
F0.0088
tp427
a(lp428
(I9
F0.0227
tp429
a(lp430
(I15
F0.0299
tp431
a(lp432
(I0
F0.1992
tp433
a(F1236.0
F15.0
tp434
a(lp435
(I3
F-0.013
tp436
a(F1123.0
F0.0
tp437
a(F1089.0
F5.0
tp438
aaa(F1411.0
F44.0
tp439
aa(F855.0
F36.0
tp440
aa(lp441
(I12
F0.5525
tp442
a(F1028.0
F23.0
tp443
a(F963.0
F43.0
tp444
aaa(F806.0
F62.0
tp445
aa(lp446
(I13
F0.0282
tp447
a(lp448
(I8
F0.4755
tp449
a(F1334.0
F78.0
tp450
a(F888.0
F33.0
tp451
aa(lp452
(I11
F0.036
tp453
a(F1114.0
F78.0
tp454
a(F1246.0
F129.0
tp455
aaaa(lp456
(I6
F0.0034
tp457
a(lp458
(I8
F0.0065
tp459
a(F1372.0
F88.0
tp460
a(F838.0
F105.0
tp461
aa(lp462
(I15
F0.0773
tp463
a(F1315.0
F173.0
tp464
a(F789.0
F248.0
tp465
aaaa(lp466
(I10
F0.3781
tp467
a(lp468
(I13
F0.0728
tp469
a(lp470
(I3
F0.1109
tp471
a(F857.0
F75.0
tp472
a(F966.0
F136.0
tp473
aa(lp474
(I4
F0.0512
tp475
a(lp476
(I1
F0.1117
tp477
a(F949.0
F112.0
tp478
a(F763.0
F178.0
tp479
aa(F620.0
F279.0
tp480
aaa(lp481
(I13
F0.1056
tp482
a(lp483
(I1
F0.102
tp484
a(F1290.0
F286.0
tp485
a(F896.0
F328.0
tp486
aa(F878.0
F557.0
tp487
aaaa(lp488
(I6
F0.3471
tp489
a(lp490
(I0
F0.608
tp491
a(lp492
(I14
F0.1238
tp493
a(lp494
(I11
F0.1178
tp495
a(F895.0
F133.0
tp496
a(lp497
(I15
F0.1085
tp498
a(F669.0
F205.0
tp499
a(F638.0
F157.0
tp500
aaa(F517.0
F403.0
tp501
aa(F350.0
F487.0
tp502
aa(lp503
(I5
F0.2023
tp504
a(lp505
(I13
F0.1355
tp506
a(F438.0
F345.0
tp507
a(F471.0
F900.0
tp508
aa(lp509
(I8
F1.2696
tp510
a(F182.0
F598.0
tp511
a(F110.0
F1225.0
tp512
aaaaa(lp513
(I5
F0.1303
tp514
a(lp515
(I5
F0.0619
tp516
a(lp517
(I1
F0.0564
tp518
a(lp519
(I13
F0.0442
tp520
a(lp521
(I0
F0.9985
tp522
a(lp523
(I9
F0.0062
tp524
a(lp525
(I3
F0.0187
tp526
a(lp527
(I0
F0.0003
tp528
a(lp529
(I9
F-0.0201
tp530
a(F1065.0
F34.0
tp531
a(F831.0
F11.0
tp532
aa(lp533
(I9
F-0.0183
tp534
a(F1083.0
F16.0
tp535
a(F1047.0
F4.0
tp536
aaa(F769.0
F31.0
tp537
aa(lp538
(I11
F0.0565
tp539
a(lp540
(I7
F0.0228
tp541
a(F1526.0
F33.0
tp542
a(F1379.0
F86.0
tp543
aa(F723.0
F81.0
tp544
aaa(lp545
(I7
F0.024
tp546
a(lp547
(I13
F-0.0013
tp548
a(F831.0
F2.0
tp549
a(F769.0
F16.0
tp550
aa(F873.0
F33.0
tp551
aaa(lp552
(I8
F0.0195
tp553
a(F1249.0
F77.0
tp554
a(lp555
(I15
F0.0684
tp556
a(F1450.0
F146.0
tp557
a(F648.0
F155.0
tp558
aaaa(lp559
(I9
F0.0767
tp560
a(F1389.0
F169.0
tp561
a(F986.0
F235.0
tp562
aaa(lp563
(I12
F0.3903
tp564
a(lp565
(I10
F0.0827
tp566
a(lp567
(I3
F0.0831
tp568
a(F1076.0
F75.0
tp569
a(lp570
(I5
F0.1039
tp571
a(F873.0
F138.0
tp572
a(F813.0
F163.0
tp573
aaa(lp574
(I9
F0.0981
tp575
a(F709.0
F118.0
tp576
a(F608.0
F243.0
tp577
aaa(lp578
(I9
F0.0913
tp579
a(lp580
(I5
F0.0831
tp581
a(F1185.0
F194.0
tp582
a(F942.0
F270.0
tp583
aa(lp584
(I7
F0.106
tp585
a(F943.0
F413.0
tp586
a(F482.0
F308.0
tp587
aaaaa(lp588
(I12
F0.2813
tp589
a(lp590
(I2
F0.024
tp591
a(lp592
(I1
F0.1466
tp593
a(F744.0
F122.0
tp594
a(lp595
(I15
F0.0979
tp596
a(F707.0
F115.0
tp597
a(F618.0
F228.0
tp598
aaa(F807.0
F528.0
tp599
aa(lp600
(I5
F0.201
tp601
a(lp602
(I6
F0.3026
tp603
a(F475.0
F347.0
tp604
a(lp605
(I7
F0.1444
tp606
a(F414.0
F445.0
tp607
a(F419.0
F756.0
tp608
aaa(lp609
(I7
F0.2052
tp610
a(F212.0
F592.0
tp611
a(lp612
(I8
F2.0292
tp613
a(F107.0
F696.0
tp614
a(F48.0
F780.0
tp615
aaaaaa(lp616
(I7
F0.1188
tp617
a(lp618
(I5
F0.0842
tp619
a(lp620
(I9
F0.055
tp621
a(lp622
(I9
F0.0361
tp623
a(lp624
(I13
F0.0452
tp625
a(lp626
(I2
F1.5815
tp627
a(lp628
(I9
F0.0002
tp629
a(lp630
(I13
F-0.0052
tp631
a(lp632
(I14
F0.3995
tp633
a(lp634
(I2
F0.3082
tp635
a(F1231.0
F29.0
tp636
a(F891.0
F6.0
tp637
aa(F1181.0
F3.0
tp638
aa(lp639
(I11
F-0.0171
tp640
a(F763.0
F25.0
tp641
a(F890.0
F19.0
tp642
aaa(lp643
(I7
F0.036
tp644
a(lp645
(I7
F0.0015
tp646
a(F1040.0
F40.0
tp647
a(lp648
(I3
F0.022
tp649
a(F1153.0
F13.0
tp650
a(F772.0
F28.0
tp651
aaa(F1111.0
F71.0
tp652
aaa(F776.0
F45.0
tp653
aa(F901.0
F75.0
tp654
aa(lp655
(I1
F0.0539
tp656
a(lp657
(I7
F0.0313
tp658
a(F786.0
F31.0
tp659
a(F890.0
F88.0
tp660
aa(F727.0
F93.0
tp661
aaa(lp662
(I9
F0.1679
tp663
a(lp664
(I3
F0.0674
tp665
a(lp666
(I8
F0.0193
tp667
a(F917.0
F71.0
tp668
a(lp669
(I15
F0.0647
tp670
a(F1115.0
F112.0
tp671
a(F690.0
F134.0
tp672
aaa(lp673
(I9
F0.0925
tp674
a(F1178.0
F154.0
tp675
a(F923.0
F223.0
tp676
aaa(F588.0
F201.0
tp677
aaa(lp678
(I13
F0.1788
tp679
a(lp680
(I2
F0.4909
tp681
a(lp682
(I15
F0.0629
tp683
a(lp684
(I5
F0.1234
tp685
a(F772.0
F83.0
tp686
a(F694.0
F148.0
tp687
aa(lp688
(I10
F0.0433
tp689
a(F730.0
F152.0
tp690
a(F648.0
F249.0
tp691
aaa(lp692
(I3
F0.1316
tp693
a(lp694
(I6
F0.8366
tp695
a(F597.0
F258.0
tp696
a(F637.0
F214.0
tp697
aa(F625.0
F410.0
tp698
aaa(F351.0
F449.0
tp699
aaa(lp700
(I14
F0.8592
tp701
a(lp702
(I8
F0.0238
tp703
a(lp704
(I1
F0.1015
tp705
a(F1089.0
F87.0
tp706
a(lp707
(I9
F0.1795
tp708
a(F1061.0
F314.0
tp709
a(F755.0
F139.0
tp710
aaa(lp711
(I9
F0.1444
tp712
a(F899.0
F389.0
tp713
a(F492.0
F742.0
tp714
aaa(lp715
(I5
F0.1679
tp716
a(F688.0
F733.0
tp717
a(lp718
(I15
F0.2048
tp719
a(F173.0
F588.0
tp720
a(F110.0
F1200.0
tp721
aaaaa(lp722
(I5
F0.1148
tp723
a(lp724
(I15
F0.0496
tp725
a(lp726
(I9
F0.09
tp727
a(lp728
(I1
F0.0551
tp729
a(lp730
(I11
F0.0611
tp731
a(lp732
(I11
F0.0042
tp733
a(lp734
(I10
F0.6769
tp735
a(lp736
(I7
F-0.0125
tp737
a(F1145.0
F3.0
tp738
a(lp739
(I8
F0.0001
tp740
a(F996.0
F22.0
tp741
a(F1256.0
F14.0
tp742
aaa(lp743
(I8
F1.1018
tp744
a(F776.0
F32.0
tp745
a(F870.0
F7.0
tp746
aaa(lp747
(I13
F0.0321
tp748
a(lp749
(I7
F0.0132
tp750
a(F1162.0
F13.0
tp751
a(F1335.0
F44.0
tp752
aa(F1356.0
F64.0
tp753
aaa(F1064.0
F87.0
tp754
aa(lp755
(I5
F0.0735
tp756
a(lp757
(I13
F0.0401
tp758
a(F857.0
F48.0
tp759
a(F702.0
F78.0
tp760
aa(F793.0
F129.0
tp761
aaa(lp762
(I10
F0.0733
tp763
a(F772.0
F78.0
tp764
a(F980.0
F362.0
tp765
aaa(lp766
(I3
F0.0799
tp767
a(lp768
(I3
F0.0142
tp769
a(lp770
(I12
F0.1399
tp771
a(lp772
(I1
F-0.0198
tp773
a(F795.0
F15.0
tp774
a(F765.0
F27.0
tp775
aa(F969.0
F97.0
tp776
aa(lp777
(I4
F0.0144
tp778
a(lp779
(I15
F0.1073
tp780
a(F706.0
F95.0
tp781
a(F850.0
F77.0
tp782
aa(lp783
(I5
F0.0507
tp784
a(F988.0
F140.0
tp785
a(lp786
(I15
F0.077
tp787
a(F678.0
F107.0
tp788
a(F611.0
F197.0
tp789
aaaaa(lp790
(I8
F0.0035
tp791
a(F1030.0
F192.0
tp792
a(lp793
(I13
F0.1046
tp794
a(F1063.0
F311.0
tp795
a(F548.0
F330.0
tp796
aaaaa(lp797
(I12
F0.6714
tp798
a(lp799
(I6
F0.0363
tp800
a(lp801
(I10
F0.0024
tp802
a(lp803
(I1
F0.1552
tp804
a(F1079.0
F220.0
tp805
a(F1148.0
F196.0
tp806
aa(F693.0
F346.0
tp807
aa(lp808
(I5
F0.1813
tp809
a(lp810
(I1
F0.1437
tp811
a(F593.0
F249.0
tp812
a(F419.0
F350.0
tp813
aa(F353.0
F460.0
tp814
aaa(lp815
(I1
F0.2051
tp816
a(lp817
(I7
F0.1447
tp818
a(lp819
(I3
F0.1314
tp820
a(F519.0
F317.0
tp821
a(F408.0
F390.0
tp822
aa(F345.0
F869.0
tp823
aa(lp824
(I15
F0.2302
tp825
a(F183.0
F782.0
tp826
a(F54.0
F851.0
tp827
aaaaa(lp828
(I5
F0.1272
tp829
a(lp830
(I15
F0.0762
tp831
a(lp832
(I9
F0.0767
tp833
a(lp834
(I1
F0.0516
tp835
a(lp836
(I7
F0.0234
tp837
a(lp838
(I1
F0.0166
tp839
a(lp840
(I2
F0.1455
tp841
a(lp842
(I14
F0.0008
tp843
a(F964.0
F27.0
tp844
a(F939.0
F12.0
tp845
aa(lp846
(I7
F-0.0022
tp847
a(lp848
(I11
F-0.0252
tp849
a(F803.0
F2.0
tp850
a(F1.136
F1.0
tp851
aa(F1375.0
F22.0
tp852
aaa(lp853
(I7
F0.0064
tp854
a(F806.0
F21.0
tp855
a(F774.0
F37.0
tp856
aaa(lp857
(I13
F0.0447
tp858
a(lp859
(I15
F0.0361
tp860
a(lp861
(I7
F0.0394
tp862
a(F993.0
F43.0
tp863
a(F952.0
F19.0
tp864
aa(F1218.0
F83.0
tp865
aa(F1091.0
F95.0
tp866
aaa(lp867
(I2
F1.4557
tp868
a(lp869
(I4
F0.0985
tp870
a(F949.0
F79.0
tp871
a(lp872
(I13
F0.0436
tp873
a(F737.0
F53.0
tp874
a(F943.0
F136.0
tp875
aaa(F715.0
F121.0
tp876
aaa(lp877
(I0
F0.652
tp878
a(lp879
(I8
F0.1687
tp880
a(F1304.0
F186.0
tp881
a(F1032.0
F258.0
tp882
aa(F1040.0
F373.0
tp883
aaa(lp884
(I3
F0.0796
tp885
a(lp886
(I4
F0.3977
tp887
a(lp888
(I10
F0.1401
tp889
a(lp890
(I1
F0.008
tp891
a(F1090.0
F36.0
tp892
a(F1226.0
F113.0
tp893
aa(F835.0
F150.0
tp894
aa(F906.0
F253.0
tp895
aa(lp896
(I6
F0.0058
tp897
a(F975.0
F173.0
tp898
a(lp899
(I2
F0.4635
tp900
a(F545.0
F324.0
tp901
a(F757.0
F337.0
tp902
aaaaa(lp903
(I2
F0.4679
tp904
a(lp905
(I14
F0.3329
tp906
a(lp907
(I10
F0.0057
tp908
a(lp909
(I3
F0.1607
tp910
a(F991.0
F232.0
tp911
a(F1176.0
F211.0
tp912
aa(F664.0
F329.0
tp913
aa(F582.0
F781.0
tp914
aa(lp915
(I9
F0.1903
tp916
a(lp917
(I7
F0.1295
tp918
a(F659.0
F435.0
tp919
a(F447.0
F793.0
tp920
aa(lp921
(I9
F0.2474
tp922
a(F195.0
F603.0
tp923
a(F101.0
F1202.0
tp924
aaaaa(lp925
(I5
F0.122
tp926
a(lp927
(I3
F0.0731
tp928
a(lp929
(I13
F0.0537
tp930
a(lp931
(I0
F1.4325
tp932
a(lp933
(I11
F0.0759
tp934
a(lp935
(I15
F0.0503
tp936
a(lp937
(I3
F0.0173
tp938
a(lp939
(I7
F0.0148
tp940
a(lp941
(I13
F0.0126
tp942
a(lp943
(I3
F-0.011
tp944
a(lp945
(I0
F0.2203
tp946
a(F773.0
F3.0
tp947
a(F958.0
F0.0
tp948
aa(F1130.0
F11.0
tp949
aa(F782.0
F9.0
tp950
aa(lp951
(I9
F0.0
tp952
a(F794.0
F10.0
tp953
a(F784.0
F25.0
tp954
aaa(lp955
(I11
F0.0343
tp956
a(lp957
(I8
F0.5671
tp958
a(F991.0
F26.0
tp959
a(F740.0
F30.0
tp960
aa(F876.0
F55.0
tp961
aaa(lp962
(I5
F0.0156
tp963
a(F1464.0
F45.0
tp964
a(F1178.0
F110.0
tp965
aaa(F1102.0
F116.0
tp966
aa(F1304.0
F81.0
tp967
aa(lp968
(I10
F0.1478
tp969
a(lp970
(I13
F0.0936
tp971
a(F917.0
F87.0
tp972
a(F1154.0
F81.0
tp973
aa(lp974
(I11
F0.0878
tp975
a(lp976
(I7
F0.0574
tp977
a(F970.0
F106.0
tp978
a(F869.0
F197.0
tp979
aa(F623.0
F194.0
tp980
aaaa(lp981
(I8
F0.6289
tp982
a(lp983
(I8
F0.0008
tp984
a(lp985
(I13
F0.0472
tp986
a(F786.0
F65.0
tp987
a(lp988
(I13
F0.0988
tp989
a(F687.0
F178.0
tp990
a(F964.0
F140.0
tp991
aaa(lp992
(I13
F0.083
tp993
a(F957.0
F165.0
tp994
a(F801.0
F285.0
tp995
aaa(lp996
(I13
F0.1051
tp997
a(lp998
(I13
F0.0776
tp999
a(F862.0
F216.0
tp1000
a(F553.0
F229.0
tp1001
aa(F511.0
F359.0
tp1002
aaaa(lp1003
(I12
F0.3434
tp1004
a(lp1005
(I6
F0.0046
tp1006
a(lp1007
(I13
F0.1105
tp1008
a(F850.0
F155.0
tp1009
a(lp1010
(I7
F0.1481
tp1011
a(F674.0
F237.0
tp1012
a(F899.0
F199.0
tp1013
aaa(lp1014
(I8
F0.027
tp1015
a(F528.0
F275.0
tp1016
a(F444.0
F360.0
tp1017
aaa(lp1018
(I3
F0.2204
tp1019
a(lp1020
(I15
F0.1719
tp1021
a(lp1022
(I7
F0.1298
tp1023
a(F830.0
F595.0
tp1024
a(F555.0
F796.0
tp1025
aa(F208.0
F627.0
tp1026
aa(lp1027
(I11
F0.2675
tp1028
a(F184.0
F613.0
tp1029
a(F74.0
F1004.0
tp1030
aaaaa(lp1031
(I13
F0.1379
tp1032
a(lp1033
(I1
F0.0842
tp1034
a(lp1035
(I9
F0.0564
tp1036
a(lp1037
(I5
F0.0517
tp1038
a(lp1039
(I15
F0.0372
tp1040
a(lp1041
(I1
F0.0138
tp1042
a(lp1043
(I9
F0.0131
tp1044
a(lp1045
(I7
F0.0148
tp1046
a(lp1047
(I0
F0.1681
tp1048
a(F1203.0
F11.0
tp1049
a(lp1050
(I5
F-0.0175
tp1051
a(F871.0
F0.0
tp1052
a(F1119.0
F4.0
tp1053
aaa(F803.0
F25.0
tp1054
aa(F992.0
F38.0
tp1055
aa(lp1056
(I4
F0.9532
tp1057
a(lp1058
(I2
F0.3099
tp1059
a(F1059.0
F35.0
tp1060
a(F970.0
F54.0
tp1061
aa(F935.0
F17.0
tp1062
aaa(lp1063
(I5
F0.0272
tp1064
a(lp1065
(I12
F0.2739
tp1066
a(lp1067
(I11
F-0.0082
tp1068
a(F813.0
F11.0
tp1069
a(F743.0
F34.0
tp1070
aa(F1068.0
F63.0
tp1071
aa(F1177.0
F115.0
tp1072
aaa(lp1073
(I8
F0.325
tp1074
a(F1145.0
F91.0
tp1075
a(F1114.0
F184.0
tp1076
aaa(lp1077
(I11
F0.1243
tp1078
a(lp1079
(I6
F0.3106
tp1080
a(lp1081
(I4
F0.0173
tp1082
a(F1125.0
F64.0
tp1083
a(F777.0
F100.0
tp1084
aa(lp1085
(I5
F0.0693
tp1086
a(F1037.0
F176.0
tp1087
a(F631.0
F164.0
tp1088
aaa(F754.0
F228.0
tp1089
aaa(lp1090
(I8
F0.3271
tp1091
a(lp1092
(I15
F0.0872
tp1093
a(lp1094
(I7
F0.115
tp1095
a(lp1096
(I11
F0.1278
tp1097
a(lp1098
(I3
F0.1219
tp1099
a(F735.0
F57.0
tp1100
a(F810.0
F119.0
tp1101
aa(F644.0
F162.0
tp1102
aa(F616.0
F173.0
tp1103
aa(F1102.0
F372.0
tp1104
aa(lp1105
(I1
F0.1224
tp1106
a(lp1107
(I7
F0.0882
tp1108
a(F805.0
F203.0
tp1109
a(F692.0
F315.0
tp1110
aa(lp1111
(I3
F0.1538
tp1112
a(F606.0
F306.0
tp1113
a(F457.0
F391.0
tp1114
aaaaa(lp1115
(I12
F0.2363
tp1116
a(lp1117
(I5
F0.1258
tp1118
a(F1035.0
F126.0
tp1119
a(lp1120
(I7
F0.1786
tp1121
a(F678.0
F295.0
tp1122
a(F786.0
F265.0
tp1123
aaa(lp1124
(I1
F0.2093
tp1125
a(lp1126
(I14
F0.6507
tp1127
a(F723.0
F569.0
tp1128
a(F532.0
F1012.0
tp1129
aa(lp1130
(I14
F1.4241
tp1131
a(F195.0
F777.0
tp1132
a(F76.0
F1076.0
tp1133
aaaaa(lp1134
(I9
F0.0941
tp1135
a(lp1136
(I1
F0.0572
tp1137
a(lp1138
(I11
F0.0614
tp1139
a(lp1140
(I5
F0.0532
tp1141
a(lp1142
(I13
F0.0259
tp1143
a(lp1144
(I5
F0.0057
tp1145
a(lp1146
(I2
F0.1455
tp1147
a(lp1148
(I3
F-0.0202
tp1149
a(F1309.0
F10.0
tp1150
a(F888.0
F23.0
tp1151
aa(lp1152
(I15
F0.0044
tp1153
a(F1495.0
F3.0
tp1154
a(F1036.0
F9.0
tp1155
aaa(lp1156
(I7
F0.0064
tp1157
a(F864.0
F20.0
tp1158
a(lp1159
(I10
F0.6406
tp1160
a(F1322.0
F44.0
tp1161
a(F770.0
F39.0
tp1162
aaaa(lp1163
(I12
F0.3013
tp1164
a(F1168.0
F49.0
tp1165
a(lp1166
(I7
F0.0408
tp1167
a(F1485.0
F80.0
tp1168
a(F738.0
F84.0
tp1169
aaaa(F1362.0
F177.0
tp1170
aa(lp1171
(I7
F0.0434
tp1172
a(F1161.0
F92.0
tp1173
a(F715.0
F144.0
tp1174
aaa(lp1175
(I10
F0.7406
tp1176
a(lp1177
(I15
F0.062
tp1178
a(lp1179
(I5
F0.115
tp1180
a(lp1181
(I4
F0.2161
tp1182
a(F1084.0
F88.0
tp1183
a(F806.0
F114.0
tp1184
aa(F720.0
F163.0
tp1185
aa(lp1186
(I0
F0.0165
tp1187
a(F775.0
F116.0
tp1188
a(F690.0
F241.0
tp1189
aaa(lp1190
(I5
F0.0859
tp1191
a(F1159.0
F238.0
tp1192
a(F558.0
F257.0
tp1193
aaaa(lp1194
(I4
F0.4469
tp1195
a(lp1196
(I8
F0.0248
tp1197
a(lp1198
(I5
F0.0871
tp1199
a(F1407.0
F127.0
tp1200
a(lp1201
(I11
F0.1276
tp1202
a(F886.0
F171.0
tp1203
a(lp1204
(I9
F0.159
tp1205
a(F563.0
F182.0
tp1206
a(F1069.0
F232.0
tp1207
aaaa(lp1208
(I11
F0.1494
tp1209
a(lp1210
(I5
F0.0852
tp1211
a(F687.0
F134.0
tp1212
a(F754.0
F327.0
tp1213
aa(lp1214
(I11
F0.1884
tp1215
a(F486.0
F312.0
tp1216
a(F375.0
F461.0
tp1217
aaaa(lp1218
(I5
F0.1734
tp1219
a(lp1220
(I7
F0.1338
tp1221
a(lp1222
(I12
F1.2954
tp1223
a(F913.0
F408.0
tp1224
a(F620.0
F448.0
tp1225
aa(F393.0
F541.0
tp1226
aa(lp1227
(I13
F0.2038
tp1228
a(F316.0
F618.0
tp1229
a(lp1230
(I15
F0.2435
tp1231
a(F162.0
F829.0
tp1232
a(F52.0
F891.0
tp1233
aaaaaa(lp1234
(I5
F0.1322
tp1235
a(lp1236
(I11
F0.0637
tp1237
a(lp1238
(I1
F0.0416
tp1239
a(lp1240
(I9
F0.018
tp1241
a(lp1242
(I1
F0.0263
tp1243
a(lp1244
(I11
F-0.0648
tp1245
a(F817.0
F34.0
tp1246
a(lp1247
(I13
F0.0271
tp1248
a(lp1249
(I10
F0.7899
tp1250
a(lp1251
(I3
F0.0074
tp1252
a(lp1253
(I7
F0.013
tp1254
a(lp1255
(I1
F-0.0165
tp1256
a(F882.0
F3.0
tp1257
a(F787.0
F6.0
tp1258
aa(F1028.0
F29.0
tp1259
aa(F809.0
F25.0
tp1260
aa(F1563.0
F7.0
tp1261
aa(F766.0
F37.0
tp1262
aaa(F746.0
F43.0
tp1263
aa(lp1264
(I15
F0.0501
tp1265
a(lp1266
(I5
F0.0127
tp1267
a(F894.0
F32.0
tp1268
a(lp1269
(I11
F0.0274
tp1270
a(F760.0
F51.0
tp1271
a(F793.0
F38.0
tp1272
aaa(F1324.0
F153.0
tp1273
aaa(lp1274
(I2
F0.3467
tp1275
a(lp1276
(I6
F0.0258
tp1277
a(F982.0
F62.0
tp1278
a(F757.0
F88.0
tp1279
aa(lp1280
(I13
F0.06
tp1281
a(lp1282
(I14
F0.2911
tp1283
a(F815.0
F107.0
tp1284
a(F913.0
F89.0
tp1285
aa(F653.0
F190.0
tp1286
aaaa(lp1287
(I12
F0.1706
tp1288
a(lp1289
(I0
F0.001
tp1290
a(lp1291
(I1
F0.0465
tp1292
a(F1116.0
F76.0
tp1293
a(lp1294
(I11
F0.1473
tp1295
a(F1378.0
F165.0
tp1296
a(F651.0
F144.0
tp1297
aaa(lp1298
(I3
F0.0984
tp1299
a(F817.0
F110.0
tp1300
a(F748.0
F258.0
tp1301
aaa(lp1302
(I9
F0.0917
tp1303
a(lp1304
(I6
F0.2538
tp1305
a(F750.0
F100.0
tp1306
a(lp1307
(I7
F0.0729
tp1308
a(F731.0
F93.0
tp1309
a(F628.0
F205.0
tp1310
aaa(lp1311
(I7
F0.1054
tp1312
a(lp1313
(I15
F0.081
tp1314
a(F988.0
F306.0
tp1315
a(F611.0
F287.0
tp1316
aa(F647.0
F463.0
tp1317
aaaaa(lp1318
(I12
F0.2794
tp1319
a(lp1320
(I12
F0.0017
tp1321
a(lp1322
(I2
F0.0002
tp1323
a(lp1324
(I11
F0.1251
tp1325
a(F723.0
F85.0
tp1326
a(F960.0
F262.0
tp1327
aa(F540.0
F261.0
tp1328
aa(F568.0
F332.0
tp1329
aa(lp1330
(I5
F0.2066
tp1331
a(lp1332
(I7
F0.1337
tp1333
a(F694.0
F511.0
tp1334
a(lp1335
(I14
F1.1112
tp1336
a(F358.0
F472.0
tp1337
a(F259.0
F640.0
tp1338
aaa(lp1339
(I12
F1.541
tp1340
a(F189.0
F639.0
tp1341
a(F121.0
F1291.0
tp1342
aaaaa(lp1343
(I5
F0.1315
tp1344
a(lp1345
(I1
F0.061
tp1346
a(lp1347
(I5
F0.0262
tp1348
a(lp1349
(I15
F0.0504
tp1350
a(lp1351
(I9
F0.0431
tp1352
a(lp1353
(I13
F0.0286
tp1354
a(lp1355
(I3
F0.0077
tp1356
a(lp1357
(I1
F-0.0459
tp1358
a(F775.0
F13.0
tp1359
a(lp1360
(I14
F0.1791
tp1361
a(F1563.0
F4.0
tp1362
a(lp1363
(I12
F0.7687
tp1364
a(F807.0
F11.0
tp1365
a(F835.0
F3.0
tp1366
aaaa(lp1367
(I4
F0.3648
tp1368
a(F784.0
F25.0
tp1369
a(F875.0
F18.0
tp1370
aaa(F742.0
F37.0
tp1371
aa(F838.0
F78.0
tp1372
aa(lp1373
(I8
F0.1726
tp1374
a(lp1375
(I14
F0.0083
tp1376
a(F987.0
F19.0
tp1377
a(F769.0
F51.0
tp1378
aa(F852.0
F87.0
tp1379
aaa(lp1380
(I7
F0.0834
tp1381
a(lp1382
(I9
F0.0643
tp1383
a(lp1384
(I15
F0.0466
tp1385
a(lp1386
(I11
F0.043
tp1387
a(lp1388
(I0
F0.7069
tp1389
a(F1036.0
F19.0
tp1390
a(F942.0
F44.0
tp1391
aa(F768.0
F44.0
tp1392
aa(F1249.0
F135.0
tp1393
aa(F1141.0
F206.0
tp1394
aa(F1021.0
F201.0
tp1395
aaa(lp1396
(I13
F0.0723
tp1397
a(lp1398
(I11
F0.1259
tp1399
a(lp1400
(I7
F0.0732
tp1401
a(lp1402
(I3
F0.1005
tp1403
a(F1417.0
F103.0
tp1404
a(F696.0
F93.0
tp1405
aa(F999.0
F153.0
tp1406
aa(F601.0
F209.0
tp1407
aa(lp1408
(I6
F0.0194
tp1409
a(lp1410
(I8
F0.1768
tp1411
a(lp1412
(I1
F0.1131
tp1413
a(F1005.0
F111.0
tp1414
a(F616.0
F175.0
tp1415
aa(F594.0
F228.0
tp1416
aa(lp1417
(I3
F0.1119
tp1418
a(lp1419
(I7
F0.1004
tp1420
a(F1081.0
F304.0
tp1421
a(F512.0
F267.0
tp1422
aa(F881.0
F477.0
tp1423
aaaaa(lp1424
(I10
F0.4535
tp1425
a(lp1426
(I2
F0.0049
tp1427
a(lp1428
(I13
F0.117
tp1429
a(F680.0
F134.0
tp1430
a(lp1431
(I1
F0.1684
tp1432
a(F625.0
F205.0
tp1433
a(F854.0
F199.0
tp1434
aaa(lp1435
(I13
F0.1485
tp1436
a(F733.0
F327.0
tp1437
a(F379.0
F453.0
tp1438
aaa(lp1439
(I11
F0.2414
tp1440
a(lp1441
(I14
F1.1127
tp1442
a(F786.0
F804.0
tp1443
a(F386.0
F1034.0
tp1444
aa(F129.0
F1231.0
tp1445
aaaa(lp1446
(I5
F0.1219
tp1447
a(lp1448
(I1
F0.0572
tp1449
a(lp1450
(I5
F0.0144
tp1451
a(lp1452
(I15
F0.0361
tp1453
a(lp1454
(I6
F0.4265
tp1455
a(lp1456
(I3
F0.0055
tp1457
a(lp1458
(I7
F-0.0046
tp1459
a(F1447.0
F12.0
tp1460
a(F770.0
F22.0
tp1461
aa(F933.0
F42.0
tp1462
aa(lp1463
(I11
F-0.0077
tp1464
a(F1307.0
F4.0
tp1465
a(F1012.0
F18.0
tp1466
aaa(lp1467
(I12
F0.0082
tp1468
a(F1346.0
F34.0
tp1469
a(F1126.0
F81.0
tp1470
aaa(lp1471
(I8
F1.6053
tp1472
a(lp1473
(I10
F0.1391
tp1474
a(lp1475
(I13
F0.0433
tp1476
a(lp1477
(I15
F0.0181
tp1478
a(F776.0
F28.0
tp1479
a(F824.0
F51.0
tp1480
aa(F1240.0
F107.0
tp1481
aa(lp1482
(I7
F0.0642
tp1483
a(lp1484
(I11
F0.0599
tp1485
a(lp1486
(I3
F0.0178
tp1487
a(F885.0
F28.0
tp1488
a(lp1489
(I13
F0.0311
tp1490
a(F885.0
F26.0
tp1491
a(F880.0
F64.0
tp1492
aaa(F713.0
F84.0
tp1493
aa(F675.0
F176.0
tp1494
aaa(F722.0
F124.0
tp1495
aaa(lp1496
(I9
F0.0917
tp1497
a(lp1498
(I15
F0.0973
tp1499
a(lp1500
(I13
F0.0554
tp1501
a(lp1502
(I10
F0.3296
tp1503
a(F1016.0
F65.0
tp1504
a(F907.0
F107.0
tp1505
aa(lp1506
(I15
F0.0518
tp1507
a(F792.0
F172.0
tp1508
a(F1082.0
F162.0
tp1509
aaa(F586.0
F186.0
tp1510
aa(lp1511
(I2
F0.1116
tp1512
a(lp1513
(I13
F0.1203
tp1514
a(F1046.0
F209.0
tp1515
a(F799.0
F195.0
tp1516
aa(lp1517
(I15
F0.0993
tp1518
a(lp1519
(I3
F0.1091
tp1520
a(F625.0
F179.0
tp1521
a(F682.0
F283.0
tp1522
aa(F545.0
F316.0
tp1523
aaaaa(lp1524
(I6
F0.325
tp1525
a(lp1526
(I2
F0.0001
tp1527
a(lp1528
(I9
F0.1193
tp1529
a(F848.0
F111.0
tp1530
a(lp1531
(I9
F0.1997
tp1532
a(F892.0
F293.0
tp1533
a(F637.0
F164.0
tp1534
aaa(lp1535
(I11
F0.1625
tp1536
a(F940.0
F456.0
tp1537
a(F338.0
F469.0
tp1538
aaa(lp1539
(I7
F0.2257
tp1540
a(lp1541
(I5
F0.1495
tp1542
a(F628.0
F495.0
tp1543
a(lp1544
(I14
F0.8627
tp1545
a(F457.0
F546.0
tp1546
a(F328.0
F870.0
tp1547
aaa(lp1548
(I5
F0.314
tp1549
a(F116.0
F653.0
tp1550
a(F54.0
F769.0
tp1551
aaaaa(lp1552
(I12
F2.4488
tp1553
a(lp1554
(I5
F0.1272
tp1555
a(lp1556
(I3
F0.0654
tp1557
a(lp1558
(I13
F0.048
tp1559
a(lp1560
(I7
F0.0227
tp1561
a(lp1562
(I11
F0.0595
tp1563
a(lp1564
(I5
F-0.0013
tp1565
a(lp1566
(I15
F0.0259
tp1567
a(lp1568
(I12
F0.6789
tp1569
a(F1544.0
F12.0
tp1570
a(F993.0
F1.0
tp1571
aa(F789.0
F11.0
tp1572
aa(lp1573
(I5
F0.0089
tp1574
a(F835.0
F27.0
tp1575
a(lp1576
(I10
F0.294
tp1577
a(F914.0
F23.0
tp1578
a(F1097.0
F14.0
tp1579
aaaa(F732.0
F51.0
tp1580
aa(lp1581
(I1
F0.0417
tp1582
a(lp1583
(I3
F-0.0289
tp1584
a(F772.0
F21.0
tp1585
a(lp1586
(I15
F0.0468
tp1587
a(lp1588
(I1
F0.0212
tp1589
a(F1009.0
F47.0
tp1590
a(F868.0
F23.0
tp1591
aa(F1168.0
F91.0
tp1592
aaa(F1180.0
F120.0
tp1593
aaa(lp1594
(I12
F0.082
tp1595
a(lp1596
(I5
F0.0438
tp1597
a(F982.0
F68.0
tp1598
a(F748.0
F65.0
tp1599
aa(lp1600
(I7
F0.0606
tp1601
a(lp1602
(I9
F0.0596
tp1603
a(F929.0
F83.0
tp1604
a(F775.0
F137.0
tp1605
aa(F941.0
F249.0
tp1606
aaaa(lp1607
(I10
F0.069
tp1608
a(lp1609
(I5
F0.0933
tp1610
a(lp1611
(I3
F0.1119
tp1612
a(F1221.0
F118.0
tp1613
a(F735.0
F121.0
tp1614
aa(F1236.0
F246.0
tp1615
aa(lp1616
(I11
F0.1251
tp1617
a(lp1618
(I9
F0.0858
tp1619
a(lp1620
(I6
F0.3358
tp1621
a(F726.0
F85.0
tp1622
a(F1052.0
F226.0
tp1623
aa(lp1624
(I15
F0.0817
tp1625
a(F658.0
F143.0
tp1626
a(F525.0
F256.0
tp1627
aaa(lp1628
(I8
F0.6422
tp1629
a(F755.0
F305.0
tp1630
a(F494.0
F339.0
tp1631
aaaaa(lp1632
(I8
F0.1611
tp1633
a(lp1634
(I12
F0.0001
tp1635
a(lp1636
(I11
F0.1045
tp1637
a(F782.0
F123.0
tp1638
a(lp1639
(I13
F0.1621
tp1640
a(F566.0
F204.0
tp1641
a(F853.0
F181.0
tp1642
aaa(F601.0
F381.0
tp1643
aa(lp1644
(I13
F0.1496
tp1645
a(lp1646
(I15
F0.0972
tp1647
a(F650.0
F390.0
tp1648
a(F385.0
F406.0
tp1649
aa(lp1650
(I3
F0.2203
tp1651
a(F562.0
F930.0
tp1652
a(F141.0
F711.0
tp1653
aaaaa(lp1654
(I12
F3.8225
tp1655
a(F518.0
F759.0
tp1656
a(F101.0
F656.0
tp1657
aaa(lp1658
(I5
F0.1295
tp1659
a(lp1660
(I13
F0.0559
tp1661
a(lp1662
(I11
F0.1139
tp1663
a(lp1664
(I5
F0.0209
tp1665
a(lp1666
(I1
F0.035
tp1667
a(lp1668
(I7
F0.0234
tp1669
a(lp1670
(I0
F0.3145
tp1671
a(lp1672
(I3
F-0.011
tp1673
a(F1502.0
F24.0
tp1674
a(F998.0
F40.0
tp1675
aa(lp1676
(I1
F0.002
tp1677
a(lp1678
(I2
F0.9521
tp1679
a(F1.063
F1.0
tp1680
a(F766.0
F6.0
tp1681
aa(F988.0
F17.0
tp1682
aaa(lp1683
(I5
F-0.0095
tp1684
a(F859.0
F17.0
tp1685
a(F1142.0
F50.0
tp1686
aaa(F728.0
F49.0
tp1687
aa(lp1688
(I2
F1.1224
tp1689
a(lp1690
(I7
F0.0792
tp1691
a(lp1692
(I9
F0.0481
tp1693
a(lp1694
(I13
F0.0345
tp1695
a(lp1696
(I14
F0.4391
tp1697
a(F1172.0
F30.0
tp1698
a(F802.0
F34.0
tp1699
aa(F847.0
F56.0
tp1700
aa(F839.0
F67.0
tp1701
aa(F856.0
F101.0
tp1702
aa(lp1703
(I1
F0.0485
tp1704
a(F798.0
F60.0
tp1705
a(F701.0
F89.0
tp1706
aaaa(F1137.0
F218.0
tp1707
aa(lp1708
(I1
F0.068
tp1709
a(lp1710
(I6
F0.4514
tp1711
a(lp1712
(I0
F0.113
tp1713
a(lp1714
(I1
F0.0172
tp1715
a(F769.0
F43.0
tp1716
a(F1090.0
F89.0
tp1717
aa(F735.0
F107.0
tp1718
aa(F1235.0
F272.0
tp1719
aa(lp1720
(I10
F0.0692
tp1721
a(lp1722
(I3
F0.1114
tp1723
a(F1122.0
F154.0
tp1724
a(F861.0
F208.0
tp1725
aa(lp1726
(I7
F0.1162
tp1727
a(lp1728
(I1
F0.114
tp1729
a(lp1730
(I15
F0.0841
tp1731
a(F1208.0
F284.0
tp1732
a(F615.0
F235.0
tp1733
aa(F798.0
F356.0
tp1734
aa(F580.0
F333.0
tp1735
aaaaa(lp1736
(I10
F0.3822
tp1737
a(lp1738
(I14
F0.3143
tp1739
a(lp1740
(I12
F0.0021
tp1741
a(lp1742
(I7
F0.1945
tp1743
a(lp1744
(I3
F0.1495
tp1745
a(F716.0
F98.0
tp1746
a(F733.0
F200.0
tp1747
aa(F675.0
F114.0
tp1748
aa(F667.0
F373.0
tp1749
aa(F365.0
F511.0
tp1750
aa(lp1751
(I9
F0.2205
tp1752
a(lp1753
(I7
F0.1513
tp1754
a(lp1755
(I6
F0.5339
tp1756
a(F486.0
F340.0
tp1757
a(F455.0
F427.0
tp1758
aa(F455.0
F989.0
tp1759
aa(lp1760
(I1
F0.3083
tp1761
a(F135.0
F696.0
tp1762
a(F47.0
F827.0
tp1763
aaaaa(lp1764
(I13
F0.1382
tp1765
a(lp1766
(I3
F0.0694
tp1767
a(lp1768
(I5
F0.0568
tp1769
a(lp1770
(I11
F0.0149
tp1771
a(lp1772
(I3
F0.0226
tp1773
a(lp1774
(I3
F-0.0022
tp1775
a(lp1776
(I3
F-0.0138
tp1777
a(lp1778
(I0
F0.6301
tp1779
a(lp1780
(I5
F-0.0138
tp1781
a(F1577.0
F21.0
tp1782
a(F789.0
F34.0
tp1783
aa(F956.0
F3.0
tp1784
aa(F1023.0
F42.0
tp1785
aa(lp1786
(I5
F0.0139
tp1787
a(F1146.0
F8.0
tp1788
a(F739.0
F14.0
tp1789
aaa(F1276.0
F47.0
tp1790
aa(lp1791
(I1
F0.0523
tp1792
a(lp1793
(I11
F0.0839
tp1794
a(lp1795
(I9
F0.0537
tp1796
a(lp1797
(I3
F-0.0011
tp1798
a(F819.0
F21.0
tp1799
a(lp1800
(I11
F0.035
tp1801
a(F1431.0
F57.0
tp1802
a(F1274.0
F71.0
tp1803
aaa(F956.0
F77.0
tp1804
aa(F1128.0
F124.0
tp1805
aa(F837.0
F103.0
tp1806
aaa(lp1807
(I10
F0.2767
tp1808
a(F1298.0
F151.0
tp1809
a(lp1810
(I13
F0.0631
tp1811
a(F687.0
F103.0
tp1812
a(F743.0
F175.0
tp1813
aaaa(lp1814
(I8
F0.0071
tp1815
a(lp1816
(I14
F0.0684
tp1817
a(lp1818
(I3
F0.1219
tp1819
a(F1335.0
F128.0
tp1820
a(lp1821
(I7
F0.0845
tp1822
a(F713.0
F124.0
tp1823
a(F609.0
F153.0
tp1824
aaa(F652.0
F198.0
tp1825
aa(lp1826
(I15
F0.103
tp1827
a(lp1828
(I13
F0.1045
tp1829
a(lp1830
(I11
F0.1262
tp1831
a(lp1832
(I1
F0.1253
tp1833
a(lp1834
(I1
F0.0784
tp1835
a(F644.0
F139.0
tp1836
a(F1233.0
F192.0
tp1837
aa(F603.0
F206.0
tp1838
aa(F616.0
F313.0
tp1839
aa(F831.0
F376.0
tp1840
aa(F920.0
F645.0
tp1841
aaaa(lp1842
(I4
F0.4108
tp1843
a(lp1844
(I14
F0.3758
tp1845
a(lp1846
(I7
F0.0734
tp1847
a(F810.0
F138.0
tp1848
a(lp1849
(I1
F0.1468
tp1850
a(F706.0
F127.0
tp1851
a(F995.0
F346.0
tp1852
aaa(F400.0
F536.0
tp1853
aa(lp1854
(I3
F0.2013
tp1855
a(lp1856
(I6
F0.7396
tp1857
a(F415.0
F403.0
tp1858
a(F404.0
F862.0
tp1859
aa(lp1860
(I11
F0.2682
tp1861
a(F196.0
F751.0
tp1862
a(F59.0
F952.0
tp1863
aaaaa(lp1864
(I13
F0.1368
tp1865
a(lp1866
(I1
F0.0639
tp1867
a(lp1868
(I9
F0.0562
tp1869
a(lp1870
(I15
F0.0489
tp1871
a(lp1872
(I13
F0.0475
tp1873
a(lp1874
(I5
F-0.0013
tp1875
a(lp1876
(I6
F0.8185
tp1877
a(lp1878
(I0
F0.1457
tp1879
a(F1180.0
F23.0
tp1880
a(F1404.0
F6.0
tp1881
aa(F1127.0
F3.0
tp1882
aa(lp1883
(I11
F0.0404
tp1884
a(lp1885
(I9
F0.0248
tp1886
a(lp1887
(I5
F0.0133
tp1888
a(F1158.0
F16.0
tp1889
a(lp1890
(I6
F0.1395
tp1891
a(F732.0
F43.0
tp1892
a(F1242.0
F39.0
tp1893
aaa(F962.0
F12.0
tp1894
aa(F1099.0
F64.0
tp1895
aaa(F741.0
F56.0
tp1896
aa(lp1897
(I2
F0.0609
tp1898
a(lp1899
(I3
F-0.0212
tp1900
a(F838.0
F26.0
tp1901
a(F1152.0
F76.0
tp1902
aa(lp1903
(I7
F0.0499
tp1904
a(F784.0
F75.0
tp1905
a(F734.0
F124.0
tp1906
aaaa(lp1907
(I3
F0.054
tp1908
a(lp1909
(I15
F0.0765
tp1910
a(F1205.0
F125.0
tp1911
a(F789.0
F120.0
tp1912
aa(F850.0
F181.0
tp1913
aaa(lp1914
(I8
F0.3265
tp1915
a(lp1916
(I4
F0.2312
tp1917
a(lp1918
(I3
F0.1221
tp1919
a(lp1920
(I5
F0.0881
tp1921
a(F1106.0
F115.0
tp1922
a(F873.0
F138.0
tp1923
aa(lp1924
(I11
F0.121
tp1925
a(F1118.0
F167.0
tp1926
a(F604.0
F194.0
tp1927
aaa(F1164.0
F369.0
tp1928
aa(lp1929
(I3
F0.1218
tp1930
a(lp1931
(I5
F0.0868
tp1932
a(lp1933
(I9
F0.079
tp1934
a(F1000.0
F134.0
tp1935
a(F599.0
F168.0
tp1936
aa(lp1937
(I11
F0.0971
tp1938
a(F659.0
F211.0
tp1939
a(F566.0
F260.0
tp1940
aaa(lp1941
(I5
F0.1321
tp1942
a(F729.0
F332.0
tp1943
a(F431.0
F423.0
tp1944
aaaaa(lp1945
(I8
F0.193
tp1946
a(lp1947
(I14
F0.0278
tp1948
a(lp1949
(I15
F0.1206
tp1950
a(F1089.0
F209.0
tp1951
a(F1051.0
F135.0
tp1952
aa(F497.0
F378.0
tp1953
aa(lp1954
(I1
F0.2033
tp1955
a(lp1956
(I7
F0.1296
tp1957
a(F692.0
F477.0
tp1958
a(F519.0
F1015.0
tp1959
aa(lp1960
(I9
F0.2594
tp1961
a(F175.0
F676.0
tp1962
a(F93.0
F1108.0
tp1963
aaaaa(lp1964
(I5
F0.1342
tp1965
a(lp1966
(I13
F0.0594
tp1967
a(lp1968
(I15
F0.0297
tp1969
a(lp1970
(I3
F0.1027
tp1971
a(lp1972
(I9
F0.0561
tp1973
a(lp1974
(I11
F0.015
tp1975
a(lp1976
(I12
F0.6444
tp1977
a(lp1978
(I3
F-0.0084
tp1979
a(F1518.0
F12.0
tp1980
a(lp1981
(I6
F0.04
tp1982
a(F795.0
F31.0
tp1983
a(F877.0
F11.0
tp1984
aaa(lp1985
(I9
F-0.0093
tp1986
a(F959.0
F2.0
tp1987
a(F1099.0
F13.0
tp1988
aaa(lp1989
(I3
F0.038
tp1990
a(lp1991
(I5
F0.0069
tp1992
a(F753.0
F9.0
tp1993
a(F1062.0
F39.0
tp1994
aa(F926.0
F60.0
tp1995
aaa(F725.0
F97.0
tp1996
aa(F692.0
F149.0
tp1997
aa(lp1998
(I1
F0.0694
tp1999
a(lp2000
(I11
F0.0559
tp2001
a(lp2002
(I5
F0.0223
tp2003
a(lp2004
(I5
F-0.0196
tp2005
a(F948.0
F16.0
tp2006
a(lp2007
(I2
F0.1741
tp2008
a(F826.0
F26.0
tp2009
a(F781.0
F37.0
tp2010
aaa(lp2011
(I2
F0.3946
tp2012
a(F978.0
F44.0
tp2013
a(F1010.0
F103.0
tp2014
aaa(F855.0
F102.0
tp2015
aa(F1039.0
F181.0
tp2016
aaa(lp2017
(I1
F0.0876
tp2018
a(lp2019
(I12
F0.3926
tp2020
a(lp2021
(I10
F0.0294
tp2022
a(lp2023
(I3
F0.0385
tp2024
a(F771.0
F26.0
tp2025
a(F934.0
F83.0
tp2026
aa(F857.0
F130.0
tp2027
aa(lp2028
(I9
F0.0943
tp2029
a(lp2030
(I6
F0.8844
tp2031
a(F941.0
F149.0
tp2032
a(F837.0
F209.0
tp2033
aa(F564.0
F242.0
tp2034
aaa(lp2035
(I2
F0.2545
tp2036
a(lp2037
(I12
F0.1572
tp2038
a(lp2039
(I15
F0.0924
tp2040
a(F739.0
F147.0
tp2041
a(F686.0
F112.0
tp2042
aa(F591.0
F242.0
tp2043
aa(lp2044
(I8
F1.4058
tp2045
a(lp2046
(I11
F0.1238
tp2047
a(F803.0
F283.0
tp2048
a(F503.0
F298.0
tp2049
aa(F480.0
F317.0
tp2050
aaaaa(lp2051
(I4
F0.4604
tp2052
a(lp2053
(I0
F0.0322
tp2054
a(lp2055
(I5
F0.1624
tp2056
a(F749.0
F231.0
tp2057
a(lp2058
(I15
F0.0934
tp2059
a(F731.0
F112.0
tp2060
a(F579.0
F219.0
tp2061
aaa(F835.0
F669.0
tp2062
aa(lp2063
(I13
F0.1786
tp2064
a(lp2065
(I6
F0.5797
tp2066
a(F510.0
F349.0
tp2067
a(F569.0
F699.0
tp2068
aa(lp2069
(I5
F0.2675
tp2070
a(F309.0
F942.0
tp2071
a(F97.0
F1141.0
tp2072
aaaaa(lp2073
(I15
F0.1775
tp2074
a(lp2075
(I1
F0.1086
tp2076
a(lp2077
(I13
F0.0732
tp2078
a(lp2079
(I3
F0.0354
tp2080
a(lp2081
(I13
F0.0131
tp2082
a(lp2083
(I3
F0.0078
tp2084
a(lp2085
(I11
F0.0119
tp2086
a(lp2087
(I7
F0.013
tp2088
a(lp2089
(I9
F-0.0304
tp2090
a(F1004.0
F12.0
tp2091
a(lp2092
(I12
F0.4903
tp2093
a(F941.0
F0.0
tp2094
a(F794.0
F4.0
tp2095
aaa(F1151.0
F31.0
tp2096
aa(F750.0
F28.0
tp2097
aa(lp2098
(I12
F0.0914
tp2099
a(F762.0
F39.0
tp2100
a(F831.0
F19.0
tp2101
aaa(lp2102
(I11
F0.0162
tp2103
a(lp2104
(I10
F0.4705
tp2105
a(F1049.0
F22.0
tp2106
a(F850.0
F44.0
tp2107
aa(lp2108
(I12
F0.6157
tp2109
a(F1248.0
F95.0
tp2110
a(F1210.0
F63.0
tp2111
aaaa(lp2112
(I9
F0.0801
tp2113
a(lp2114
(I4
F1.5136
tp2115
a(lp2116
(I3
F0.0764
tp2117
a(lp2118
(I3
F0.0595
tp2119
a(lp2120
(I15
F0.0496
tp2121
a(F1376.0
F71.0
tp2122
a(F698.0
F94.0
tp2123
aa(F968.0
F52.0
tp2124
aa(F1001.0
F125.0
tp2125
aa(F726.0
F98.0
tp2126
aa(F671.0
F149.0
tp2127
aaa(lp2128
(I6
F0.3924
tp2129
a(lp2130
(I10
F0.0735
tp2131
a(lp2132
(I3
F0.0686
tp2133
a(F1080.0
F78.0
tp2134
a(F832.0
F112.0
tp2135
aa(lp2136
(I5
F0.0803
tp2137
a(F755.0
F134.0
tp2138
a(F599.0
F216.0
tp2139
aaa(lp2140
(I7
F0.0985
tp2141
a(F1088.0
F298.0
tp2142
a(F497.0
F296.0
tp2143
aaaa(lp2144
(I11
F0.1494
tp2145
a(lp2146
(I12
F0.3437
tp2147
a(lp2148
(I15
F0.076
tp2149
a(lp2150
(I5
F0.1392
tp2151
a(F1147.0
F173.0
tp2152
a(F656.0
F196.0
tp2153
aa(F945.0
F387.0
tp2154
aa(lp2155
(I13
F0.1307
tp2156
a(F1025.0
F548.0
tp2157
a(F356.0
F432.0
tp2158
aaa(lp2159
(I0
F0.0349
tp2160
a(F954.0
F313.0
tp2161
a(lp2162
(I5
F0.1873
tp2163
a(lp2164
(I7
F0.1091
tp2165
a(F549.0
F313.0
tp2166
a(F392.0
F459.0
tp2167
aa(F236.0
F764.0
tp2168
aaaaa(lp2169
(I12
F0.1261
tp2170
a(F1097.0
F225.0
tp2171
a(lp2172
(I14
F1.4495
tp2173
a(F327.0
F477.0
tp2174
a(F181.0
F1347.0
tp2175
aaaa(lp2176
(I7
F0.097
tp2177
a(lp2178
(I9
F0.0825
tp2179
a(lp2180
(I3
F0.0727
tp2181
a(lp2182
(I13
F0.0593
tp2183
a(lp2184
(I3
F0.0341
tp2185
a(lp2186
(I9
F0.0427
tp2187
a(lp2188
(I5
F0.0088
tp2189
a(lp2190
(I2
F0.2415
tp2191
a(lp2192
(I3
F-0.0141
tp2193
a(F1562.0
F15.0
tp2194
a(F986.0
F32.0
tp2195
aa(lp2196
(I7
F0.0069
tp2197
a(lp2198
(I13
F-0.0083
tp2199
a(F1081.0
F0.0
tp2200
a(F787.0
F2.0
tp2201
aa(F778.0
F13.0
tp2202
aaa(lp2203
(I11
F0.0003
tp2204
a(F1362.0
F62.0
tp2205
a(lp2206
(I11
F0.0277
tp2207
a(F1122.0
F25.0
tp2208
a(F823.0
F36.0
tp2209
aaaa(F831.0
F59.0
tp2210
aa(lp2211
(I0
F1.25
tp2212
a(lp2213
(I1
F0.0411
tp2214
a(F803.0
F44.0
tp2215
a(F1376.0
F123.0
tp2216
aa(F756.0
F32.0
tp2217
aaa(lp2218
(I10
F0.2189
tp2219
a(F692.0
F71.0
tp2220
a(F1210.0
F189.0
tp2221
aaa(lp2222
(I12
F0.5888
tp2223
a(lp2224
(I4
F0.1618
tp2225
a(F1066.0
F100.0
tp2226
a(F665.0
F113.0
tp2227
aa(F720.0
F175.0
tp2228
aaa(lp2229
(I11
F0.2085
tp2230
a(lp2231
(I4
F0.0066
tp2232
a(lp2233
(I3
F0.0769
tp2234
a(F1038.0
F77.0
tp2235
a(F1197.0
F270.0
tp2236
aa(lp2237
(I5
F0.1184
tp2238
a(lp2239
(I12
F0.5845
tp2240
a(F818.0
F169.0
tp2241
a(F936.0
F313.0
tp2242
aa(F536.0
F371.0
tp2243
aaa(F357.0
F410.0
tp2244
aaa(lp2245
(I4
F0.307
tp2246
a(lp2247
(I6
F0.0053
tp2248
a(lp2249
(I11
F0.0697
tp2250
a(F1037.0
F51.0
tp2251
a(lp2252
(I3
F0.1198
tp2253
a(F774.0
F110.0
tp2254
a(lp2255
(I13
F0.1817
tp2256
a(F895.0
F267.0
tp2257
a(F690.0
F163.0
tp2258
aaaa(lp2259
(I1
F0.1463
tp2260
a(F1136.0
F386.0
tp2261
a(F454.0
F425.0
tp2262
aaa(lp2263
(I1
F0.1666
tp2264
a(lp2265
(I3
F0.1357
tp2266
a(lp2267
(I9
F0.0924
tp2268
a(F632.0
F256.0
tp2269
a(F655.0
F585.0
tp2270
aa(F466.0
F503.0
tp2271
aa(lp2272
(I13
F0.2113
tp2273
a(F443.0
F732.0
tp2274
a(lp2275
(I13
F0.316
tp2276
a(F108.0
F697.0
tp2277
a(F49.0
F743.0
tp2278
aaaaaa(lp2279
(I13
F0.1097
tp2280
a(lp2281
(I9
F0.0828
tp2282
a(lp2283
(I1
F0.0557
tp2284
a(lp2285
(I11
F0.0404
tp2286
a(lp2287
(I13
F0.048
tp2288
a(lp2289
(I5
F0.0137
tp2290
a(lp2291
(I15
F0.0408
tp2292
a(lp2293
(I13
F0.0108
tp2294
a(lp2295
(I1
F0.0005
tp2296
a(lp2297
(I0
F0.1475
tp2298
a(F958.0
F10.0
tp2299
a(lp2300
(I7
F-0.0122
tp2301
a(F891.0
F0.0
tp2302
a(F801.0
F1.0
tp2303
aaa(F924.0
F11.0
tp2304
aa(F931.0
F18.0
tp2305
aa(F1431.0
F39.0
tp2306
aa(lp2307
(I14
F1.3656
tp2308
a(lp2309
(I10
F0.2945
tp2310
a(F1466.0
F68.0
tp2311
a(F1371.0
F37.0
tp2312
aa(F742.0
F56.0
tp2313
aaa(F1080.0
F126.0
tp2314
aa(lp2315
(I14
F0.423
tp2316
a(lp2317
(I8
F0.0326
tp2318
a(F997.0
F54.0
tp2319
a(F782.0
F63.0
tp2320
aa(F1213.0
F166.0
tp2321
aaa(lp2322
(I14
F0.0045
tp2323
a(lp2324
(I9
F0.0575
tp2325
a(F1279.0
F216.0
tp2326
a(F824.0
F74.0
tp2327
aa(lp2328
(I7
F0.091
tp2329
a(lp2330
(I2
F0.5806
tp2331
a(F859.0
F89.0
tp2332
a(F1063.0
F175.0
tp2333
aa(F629.0
F236.0
tp2334
aaaa(lp2335
(I3
F0.1587
tp2336
a(lp2337
(I12
F0.0835
tp2338
a(lp2339
(I1
F0.0994
tp2340
a(F901.0
F124.0
tp2341
a(F657.0
F134.0
tp2342
aa(lp2343
(I5
F0.0792
tp2344
a(F829.0
F184.0
tp2345
a(F1013.0
F406.0
tp2346
aaa(F639.0
F312.0
tp2347
aaa(lp2348
(I0
F0.2073
tp2349
a(lp2350
(I8
F0.0017
tp2351
a(lp2352
(I7
F0.0835
tp2353
a(F943.0
F103.0
tp2354
a(lp2355
(I11
F0.1339
tp2356
a(F695.0
F110.0
tp2357
a(lp2358
(I15
F0.1339
tp2359
a(F632.0
F157.0
tp2360
a(F671.0
F155.0
tp2361
aaaa(lp2362
(I7
F0.1242
tp2363
a(F789.0
F255.0
tp2364
a(F423.0
F444.0
tp2365
aaa(lp2366
(I15
F0.2022
tp2367
a(lp2368
(I1
F0.1627
tp2369
a(lp2370
(I14
F0.5247
tp2371
a(F771.0
F377.0
tp2372
a(F764.0
F690.0
tp2373
aa(lp2374
(I8
F0.9431
tp2375
a(F385.0
F503.0
tp2376
a(F300.0
F897.0
tp2377
aaa(F202.0
F1315.0
tp2378
aaaa(lp2379
(I13
F0.1152
tp2380
a(lp2381
(I11
F0.0654
tp2382
a(lp2383
(I3
F0.0662
tp2384
a(lp2385
(I3
F0.0143
tp2386
a(lp2387
(I15
F0.0268
tp2388
a(lp2389
(I11
F0.0137
tp2390
a(lp2391
(I7
F0.0101
tp2392
a(lp2393
(I4
F0.2229
tp2394
a(F994.0
F14.0
tp2395
a(lp2396
(I15
F-0.0158
tp2397
a(F780.0
F2.0
tp2398
a(F931.0
F0.0
tp2399
aaa(F1055.0
F24.0
tp2400
aa(F878.0
F32.0
tp2401
aa(lp2402
(I12
F0.3782
tp2403
a(lp2404
(I5
F0.0011
tp2405
a(F1086.0
F19.0
tp2406
a(F749.0
F32.0
tp2407
aa(F1192.0
F84.0
tp2408
aaa(lp2409
(I7
F0.0675
tp2410
a(lp2411
(I13
F0.0544
tp2412
a(lp2413
(I9
F0.0061
tp2414
a(F1035.0
F28.0
tp2415
a(lp2416
(I5
F0.029
tp2417
a(F1225.0
F47.0
tp2418
a(lp2419
(I5
F0.0425
tp2420
a(F716.0
F63.0
tp2421
a(F906.0
F50.0
tp2422
aaaa(F753.0
F84.0
tp2423
aa(F945.0
F120.0
tp2424
aaa(lp2425
(I0
F0.0617
tp2426
a(F756.0
F77.0
tp2427
a(lp2428
(I1
F0.0936
tp2429
a(F787.0
F128.0
tp2430
a(F622.0
F191.0
tp2431
aaaa(lp2432
(I3
F0.0723
tp2433
a(lp2434
(I5
F0.0164
tp2435
a(F758.0
F45.0
tp2436
a(lp2437
(I9
F0.0873
tp2438
a(lp2439
(I3
F0.0485
tp2440
a(F724.0
F75.0
tp2441
a(F715.0
F89.0
tp2442
aa(F657.0
F151.0
tp2443
aaa(lp2444
(I4
F0.1979
tp2445
a(lp2446
(I0
F0.0208
tp2447
a(lp2448
(I11
F0.1117
tp2449
a(F870.0
F112.0
tp2450
a(F659.0
F199.0
tp2451
aa(F902.0
F244.0
tp2452
aa(lp2453
(I5
F0.1052
tp2454
a(lp2455
(I9
F0.0898
tp2456
a(F656.0
F145.0
tp2457
a(F635.0
F209.0
tp2458
aa(F806.0
F515.0
tp2459
aaaaa(lp2460
(I8
F0.348
tp2461
a(lp2462
(I6
F0.0368
tp2463
a(lp2464
(I5
F0.0854
tp2465
a(F943.0
F69.0
tp2466
a(lp2467
(I3
F0.1234
tp2468
a(F686.0
F105.0
tp2469
a(lp2470
(I7
F0.1825
tp2471
a(F841.0
F274.0
tp2472
a(F702.0
F137.0
tp2473
aaaa(F901.0
F639.0
tp2474
aa(lp2475
(I5
F0.2049
tp2476
a(lp2477
(I7
F0.1459
tp2478
a(lp2479
(I3
F0.1363
tp2480
a(F892.0
F535.0
tp2481
a(F404.0
F432.0
tp2482
aa(F432.0
F829.0
tp2483
aa(lp2484
(I15
F0.1848
tp2485
a(F177.0
F609.0
tp2486
a(F107.0
F1175.0
tp2487
aaaaa(lp2488
(I5
F0.1342
tp2489
a(lp2490
(I13
F0.0612
tp2491
a(lp2492
(I9
F0.0878
tp2493
a(lp2494
(I1
F0.0418
tp2495
a(lp2496
(I7
F0.0289
tp2497
a(lp2498
(I3
F0.0107
tp2499
a(lp2500
(I5
F0.0017
tp2501
a(lp2502
(I2
F0.1455
tp2503
a(lp2504
(I11
F-0.0112
tp2505
a(F849.0
F9.0
tp2506
a(F789.0
F13.0
tp2507
aa(lp2508
(I7
F-0.0084
tp2509
a(F1187.0
F7.0
tp2510
a(F786.0
F0.0
tp2511
aaa(F1482.0
F35.0
tp2512
aa(lp2513
(I9
F0.0114
tp2514
a(F991.0
F23.0
tp2515
a(F1285.0
F58.0
tp2516
aaa(lp2517
(I15
F0.0408
tp2518
a(lp2519
(I11
F0.0129
tp2520
a(F805.0
F18.0
tp2521
a(F744.0
F35.0
tp2522
aa(lp2523
(I13
F0.0131
tp2524
a(F849.0
F32.0
tp2525
a(F1213.0
F111.0
tp2526
aaaa(lp2527
(I0
F1.4632
tp2528
a(lp2529
(I11
F0.0179
tp2530
a(F774.0
F28.0
tp2531
a(lp2532
(I3
F0.0808
tp2533
a(lp2534
(I7
F0.0489
tp2535
a(F950.0
F62.0
tp2536
a(F732.0
F78.0
tp2537
aa(F793.0
F99.0
tp2538
aaa(F708.0
F96.0
tp2539
aaa(F958.0
F218.0
tp2540
aa(lp2541
(I10
F0.0867
tp2542
a(lp2543
(I10
F-0.0
tp2544
a(F883.0
F197.0
tp2545
a(lp2546
(I1
F0.1077
tp2547
a(lp2548
(I5
F0.044
tp2549
a(F786.0
F32.0
tp2550
a(F1271.0
F137.0
tp2551
aa(F844.0
F163.0
tp2552
aaa(lp2553
(I15
F0.0942
tp2554
a(lp2555
(I5
F0.0844
tp2556
a(lp2557
(I3
F0.0682
tp2558
a(F1293.0
F161.0
tp2559
a(F795.0
F206.0
tp2560
aa(lp2561
(I6
F0.6568
tp2562
a(F775.0
F312.0
tp2563
a(F622.0
F186.0
tp2564
aaa(lp2565
(I14
F0.9609
tp2566
a(F747.0
F277.0
tp2567
a(F728.0
F545.0
tp2568
aaaaa(lp2569
(I12
F0.2191
tp2570
a(lp2571
(I2
F0.0041
tp2572
a(lp2573
(I15
F0.0745
tp2574
a(F848.0
F103.0
tp2575
a(F1010.0
F307.0
tp2576
aa(F776.0
F455.0
tp2577
aa(lp2578
(I5
F0.2099
tp2579
a(lp2580
(I7
F0.1228
tp2581
a(F552.0
F417.0
tp2582
a(lp2583
(I14
F1.054
tp2584
a(F458.0
F513.0
tp2585
a(F327.0
F732.0
tp2586
aaa(lp2587
(I14
F1.1057
tp2588
a(F220.0
F676.0
tp2589
a(F92.0
F1197.0
tp2590
aaaaa(lp2591
(I5
F0.1336
tp2592
a(lp2593
(I11
F0.0696
tp2594
a(lp2595
(I1
F0.0516
tp2596
a(lp2597
(I15
F0.0503
tp2598
a(lp2599
(I11
F0.0274
tp2600
a(lp2601
(I1
F0.0004
tp2602
a(lp2603
(I0
F0.1145
tp2604
a(F1392.0
F32.0
tp2605
a(lp2606
(I12
F0.3491
tp2607
a(F794.0
F2.0
tp2608
a(F1539.0
F23.0
tp2609
aaa(lp2610
(I13
F0.0259
tp2611
a(lp2612
(I8
F0.3466
tp2613
a(F989.0
F29.0
tp2614
a(F1343.0
F21.0
tp2615
aa(F848.0
F41.0
tp2616
aaa(lp2617
(I0
F0.4366
tp2618
a(F888.0
F36.0
tp2619
a(F1010.0
F66.0
tp2620
aaa(lp2621
(I12
F0.3731
tp2622
a(lp2623
(I14
F0.0083
tp2624
a(F1182.0
F35.0
tp2625
a(F1105.0
F71.0
tp2626
aa(F1333.0
F189.0
tp2627
aaa(lp2628
(I5
F0.0791
tp2629
a(lp2630
(I7
F0.0645
tp2631
a(lp2632
(I13
F0.0405
tp2633
a(F812.0
F50.0
tp2634
a(F710.0
F79.0
tp2635
aa(F723.0
F118.0
tp2636
aa(F1188.0
F245.0
tp2637
aaa(lp2638
(I5
F0.0855
tp2639
a(lp2640
(I6
F0.2489
tp2641
a(lp2642
(I11
F0.1974
tp2643
a(lp2644
(I10
F0.3155
tp2645
a(lp2646
(I3
F0.0721
tp2647
a(F1182.0
F79.0
tp2648
a(F807.0
F107.0
tp2649
aa(F1060.0
F194.0
tp2650
aa(F614.0
F164.0
tp2651
aa(lp2652
(I15
F0.0678
tp2653
a(F911.0
F151.0
tp2654
a(F585.0
F239.0
tp2655
aaa(lp2656
(I12
F0.4254
tp2657
a(lp2658
(I8
F0.02
tp2659
a(F1316.0
F267.0
tp2660
a(F675.0
F244.0
tp2661
aa(lp2662
(I4
F0.9574
tp2663
a(F705.0
F421.0
tp2664
a(F735.0
F361.0
tp2665
aaaaa(lp2666
(I13
F0.1785
tp2667
a(lp2668
(I0
F0.0677
tp2669
a(lp2670
(I13
F0.1118
tp2671
a(F669.0
F128.0
tp2672
a(F752.0
F311.0
tp2673
aa(lp2674
(I12
F0.2073
tp2675
a(F509.0
F272.0
tp2676
a(lp2677
(I7
F0.1294
tp2678
a(F490.0
F343.0
tp2679
a(F439.0
F711.0
tp2680
aaaa(lp2681
(I14
F0.02
tp2682
a(F901.0
F507.0
tp2683
a(lp2684
(I7
F0.2274
tp2685
a(F384.0
F860.0
tp2686
a(F139.0
F1335.0
tp2687
aaaaa(lp2688
(I5
F0.1326
tp2689
a(lp2690
(I1
F0.0614
tp2691
a(lp2692
(I13
F0.0442
tp2693
a(lp2694
(I7
F0.013
tp2695
a(lp2696
(I11
F0.0492
tp2697
a(lp2698
(I13
F-0.006
tp2699
a(lp2700
(I6
F0.2897
tp2701
a(lp2702
(I4
F0.0395
tp2703
a(F805.0
F2.0
tp2704
a(F773.0
F15.0
tp2705
aa(F1126.0
F2.0
tp2706
aa(lp2707
(I3
F-0.0096
tp2708
a(F861.0
F7.0
tp2709
a(F1427.0
F39.0
tp2710
aaa(F727.0
F56.0
tp2711
aa(lp2712
(I3
F0.0078
tp2713
a(lp2714
(I14
F0.7591
tp2715
a(lp2716
(I9
F-0.015
tp2717
a(F805.0
F23.0
tp2718
a(F851.0
F16.0
tp2719
aa(F761.0
F40.0
tp2720
aa(lp2721
(I15
F0.0553
tp2722
a(lp2723
(I0
F0.8075
tp2724
a(F1461.0
F100.0
tp2725
a(F1090.0
F47.0
tp2726
aa(F770.0
F76.0
tp2727
aaaa(lp2728
(I8
F0.0046
tp2729
a(lp2730
(I5
F0.0378
tp2731
a(F917.0
F43.0
tp2732
a(F798.0
F87.0
tp2733
aa(lp2734
(I15
F0.0777
tp2735
a(lp2736
(I7
F0.038
tp2737
a(F1074.0
F94.0
tp2738
a(F1146.0
F179.0
tp2739
aa(F770.0
F207.0
tp2740
aaaa(lp2741
(I12
F0.2224
tp2742
a(lp2743
(I11
F0.1312
tp2744
a(lp2745
(I6
F0.0042
tp2746
a(lp2747
(I5
F0.0834
tp2748
a(F1085.0
F83.0
tp2749
a(F944.0
F113.0
tp2750
aa(F899.0
F171.0
tp2751
aa(lp2752
(I7
F0.0694
tp2753
a(F599.0
F244.0
tp2754
a(F680.0
F168.0
tp2755
aaa(lp2756
(I15
F0.1121
tp2757
a(lp2758
(I3
F0.1256
tp2759
a(lp2760
(I9
F0.0966
tp2761
a(lp2762
(I13
F0.0658
tp2763
a(F947.0
F105.0
tp2764
a(F1007.0
F238.0
tp2765
aa(F830.0
F302.0
tp2766
aa(F615.0
F299.0
tp2767
aa(F621.0
F425.0
tp2768
aaaa(lp2769
(I12
F0.2216
tp2770
a(lp2771
(I6
F0.0033
tp2772
a(lp2773
(I11
F0.1239
tp2774
a(F843.0
F148.0
tp2775
a(F1185.0
F316.0
tp2776
aa(F690.0
F413.0
tp2777
aa(lp2778
(I5
F0.2046
tp2779
a(lp2780
(I6
F0.6195
tp2781
a(F719.0
F599.0
tp2782
a(lp2783
(I5
F0.1619
tp2784
a(F351.0
F445.0
tp2785
a(F301.0
F539.0
tp2786
aaa(lp2787
(I8
F1.1953
tp2788
a(F239.0
F595.0
tp2789
a(F136.0
F1371.0
tp2790
aaaaa(lp2791
(I12
F2.4326
tp2792
a(lp2793
(I1
F0.0973
tp2794
a(lp2795
(I5
F0.0598
tp2796
a(lp2797
(I9
F0.0394
tp2798
a(lp2799
(I15
F0.0466
tp2800
a(lp2801
(I11
F0.0172
tp2802
a(lp2803
(I7
F0.0101
tp2804
a(lp2805
(I13
F0.0047
tp2806
a(lp2807
(I2
F0.2258
tp2808
a(F926.0
F8.0
tp2809
a(lp2810
(I9
F-0.0207
tp2811
a(F869.0
F0.0
tp2812
a(F767.0
F2.0
tp2813
aaa(F927.0
F19.0
tp2814
aa(lp2815
(I11
F-0.0182
tp2816
a(F907.0
F27.0
tp2817
a(F1324.0
F21.0
tp2818
aaa(lp2819
(I13
F0.011
tp2820
a(F966.0
F17.0
tp2821
a(lp2822
(I3
F0.026
tp2823
a(F753.0
F29.0
tp2824
a(F744.0
F42.0
tp2825
aaaa(lp2826
(I11
F-0.0078
tp2827
a(F1182.0
F38.0
tp2828
a(F1423.0
F121.0
tp2829
aaa(lp2830
(I3
F0.0102
tp2831
a(F1071.0
F70.0
tp2832
a(lp2833
(I8
F0.1946
tp2834
a(F1475.0
F136.0
tp2835
a(lp2836
(I9
F0.0672
tp2837
a(F1280.0
F122.0
tp2838
a(F781.0
F170.0
tp2839
aaaaa(lp2840
(I6
F0.3336
tp2841
a(lp2842
(I4
F0.2511
tp2843
a(lp2844
(I11
F0.0922
tp2845
a(F1044.0
F77.0
tp2846
a(F872.0
F159.0
tp2847
aa(F971.0
F226.0
tp2848
aa(lp2849
(I15
F0.0869
tp2850
a(lp2851
(I13
F0.0669
tp2852
a(F813.0
F104.0
tp2853
a(F748.0
F216.0
tp2854
aa(F547.0
F281.0
tp2855
aaaa(lp2856
(I12
F0.1775
tp2857
a(lp2858
(I8
F0.0318
tp2859
a(lp2860
(I13
F0.0646
tp2861
a(F888.0
F116.0
tp2862
a(lp2863
(I15
F0.072
tp2864
a(F1044.0
F184.0
tp2865
a(lp2866
(I7
F0.1335
tp2867
a(F696.0
F175.0
tp2868
a(F1037.0
F325.0
tp2869
aaaa(F968.0
F450.0
tp2870
aa(lp2871
(I13
F0.1421
tp2872
a(lp2873
(I7
F0.12
tp2874
a(lp2875
(I9
F0.0989
tp2876
a(F781.0
F186.0
tp2877
a(F873.0
F392.0
tp2878
aa(F587.0
F515.0
tp2879
aa(lp2880
(I13
F0.231
tp2881
a(lp2882
(I7
F0.1464
tp2883
a(F461.0
F406.0
tp2884
a(F370.0
F793.0
tp2885
aa(F149.0
F677.0
tp2886
aaaaa(lp2887
(I13
F0.1795
tp2888
a(F557.0
F296.0
tp2889
a(F132.0
F1127.0
tp2890
aaa(lp2891
(I11
F0.137
tp2892
a(lp2893
(I9
F0.0766
tp2894
a(lp2895
(I7
F0.0796
tp2896
a(lp2897
(I7
F0.0129
tp2898
a(lp2899
(I5
F0.0329
tp2900
a(lp2901
(I13
F0.0285
tp2902
a(lp2903
(I1
F0.0164
tp2904
a(lp2905
(I3
F-0.011
tp2906
a(lp2907
(I3
F-0.0426
tp2908
a(F785.0
F3.0
tp2909
a(F1535.0
F0.0
tp2910
aa(F1507.0
F20.0
tp2911
aa(F810.0
F36.0
tp2912
aa(F758.0
F33.0
tp2913
aa(F1123.0
F96.0
tp2914
aa(lp2915
(I13
F0.0728
tp2916
a(lp2917
(I0
F1.5965
tp2918
a(lp2919
(I13
F0.0318
tp2920
a(lp2921
(I3
F0.044
tp2922
a(lp2923
(I7
F0.0291
tp2924
a(F1297.0
F27.0
tp2925
a(lp2926
(I11
F-0.0011
tp2927
a(F783.0
F42.0
tp2928
a(F827.0
F24.0
tp2929
aaa(F769.0
F41.0
tp2930
aa(lp2931
(I1
F0.0522
tp2932
a(lp2933
(I6
F0.7986
tp2934
a(F959.0
F76.0
tp2935
a(F774.0
F32.0
tp2936
aa(F1182.0
F108.0
tp2937
aaa(F710.0
F95.0
tp2938
aa(F769.0
F169.0
tp2939
aaa(lp2940
(I4
F0.275
tp2941
a(lp2942
(I1
F0.0353
tp2943
a(F984.0
F40.0
tp2944
a(F957.0
F172.0
tp2945
aa(F1030.0
F382.0
tp2946
aaa(lp2947
(I4
F0.3924
tp2948
a(lp2949
(I0
F0.0008
tp2950
a(lp2951
(I5
F0.1109
tp2952
a(lp2953
(I5
F0.0541
tp2954
a(F779.0
F60.0
tp2955
a(F911.0
F97.0
tp2956
aa(F894.0
F197.0
tp2957
aa(lp2958
(I5
F0.089
tp2959
a(F673.0
F136.0
tp2960
a(F645.0
F236.0
tp2961
aaa(lp2962
(I11
F0.1046
tp2963
a(lp2964
(I7
F0.092
tp2965
a(F886.0
F267.0
tp2966
a(F418.0
F375.0
tp2967
aa(F836.0
F573.0
tp2968
aaaa(lp2969
(I12
F0.7302
tp2970
a(lp2971
(I12
F0.0056
tp2972
a(lp2973
(I0
F0.0573
tp2974
a(lp2975
(I5
F0.0841
tp2976
a(F928.0
F109.0
tp2977
a(lp2978
(I5
F0.1683
tp2979
a(F687.0
F197.0
tp2980
a(F645.0
F141.0
tp2981
aaa(F520.0
F258.0
tp2982
aa(lp2983
(I14
F0.4922
tp2984
a(lp2985
(I3
F0.1454
tp2986
a(F628.0
F197.0
tp2987
a(F422.0
F369.0
tp2988
aa(F358.0
F436.0
tp2989
aaa(lp2990
(I1
F0.2028
tp2991
a(lp2992
(I5
F0.1438
tp2993
a(F478.0
F323.0
tp2994
a(F350.0
F680.0
tp2995
aa(lp2996
(I14
F1.8598
tp2997
a(F148.0
F652.0
tp2998
a(F61.0
F935.0
tp2999
aaaaa(lp3000
(I9
F0.1233
tp3001
a(lp3002
(I13
F0.0698
tp3003
a(lp3004
(I7
F0.0485
tp3005
a(lp3006
(I1
F0.029
tp3007
a(lp3008
(I1
F0.0115
tp3009
a(lp3010
(I9
F0.0109
tp3011
a(lp3012
(I2
F0.1733
tp3013
a(lp3014
(I9
F-0.0201
tp3015
a(F1077.0
F30.0
tp3016
a(F929.0
F7.0
tp3017
aa(lp3018
(I6
F0.1352
tp3019
a(F830.0
F12.0
tp3020
a(lp3021
(I11
F-0.0162
tp3022
a(F877.0
F0.0
tp3023
a(F795.0
F5.0
tp3024
aaaa(lp3025
(I8
F0.5239
tp3026
a(F756.0
F40.0
tp3027
a(F898.0
F27.0
tp3028
aaa(lp3029
(I0
F0.7398
tp3030
a(F1260.0
F38.0
tp3031
a(F765.0
F47.0
tp3032
aaa(lp3033
(I15
F0.03
tp3034
a(lp3035
(I1
F0.0619
tp3036
a(F1484.0
F64.0
tp3037
a(F1019.0
F119.0
tp3038
aa(lp3039
(I10
F0.6306
tp3040
a(F740.0
F101.0
tp3041
a(F717.0
F64.0
tp3042
aaaa(lp3043
(I2
F1.1289
tp3044
a(lp3045
(I3
F0.0337
tp3046
a(lp3047
(I9
F-0.0019
tp3048
a(F919.0
F21.0
tp3049
a(F1009.0
F78.0
tp3050
aa(lp3051
(I3
F0.077
tp3052
a(F1292.0
F143.0
tp3053
a(F1060.0
F189.0
tp3054
aaa(F839.0
F175.0
tp3055
aaa(lp3056
(I12
F0.5052
tp3057
a(lp3058
(I0
F0.0159
tp3059
a(lp3060
(I11
F0.1006
tp3061
a(F1260.0
F130.0
tp3062
a(F831.0
F145.0
tp3063
aa(F1193.0
F383.0
tp3064
aa(lp3065
(I9
F0.0974
tp3066
a(lp3067
(I1
F0.0825
tp3068
a(F1121.0
F270.0
tp3069
a(F681.0
F312.0
tp3070
aa(F811.0
F508.0
tp3071
aaaa(lp3072
(I10
F0.0559
tp3073
a(lp3074
(I3
F0.0905
tp3075
a(F820.0
F56.0
tp3076
a(lp3077
(I9
F0.2139
tp3078
a(lp3079
(I5
F0.1404
tp3080
a(F710.0
F165.0
tp3081
a(F714.0
F310.0
tp3082
aa(F727.0
F157.0
tp3083
aaa(lp3084
(I5
F0.2011
tp3085
a(lp3086
(I7
F0.1263
tp3087
a(lp3088
(I9
F0.1774
tp3089
a(lp3090
(I7
F0.0731
tp3091
a(F607.0
F192.0
tp3092
a(F629.0
F311.0
tp3093
aa(F426.0
F409.0
tp3094
aa(lp3095
(I14
F1.125
tp3096
a(F515.0
F520.0
tp3097
a(F266.0
F555.0
tp3098
aaa(lp3099
(I6
F2.2713
tp3100
a(F260.0
F1134.0
tp3101
a(F64.0
F842.0
tp3102
aaaaa(lp3103
(I1
F0.1253
tp3104
a(lp3105
(I7
F0.065
tp3106
a(lp3107
(I9
F0.0561
tp3108
a(lp3109
(I5
F0.0281
tp3110
a(lp3111
(I9
F0.0176
tp3112
a(lp3113
(I4
F0.0591
tp3114
a(lp3115
(I1
F-0.0085
tp3116
a(F1374.0
F18.0
tp3117
a(F931.0
F27.0
tp3118
aa(lp3119
(I5
F0.0133
tp3120
a(lp3121
(I15
F0.0118
tp3122
a(lp3123
(I6
F0.2896
tp3124
a(F827.0
F7.0
tp3125
a(F1219.0
F0.0
tp3126
aa(F924.0
F12.0
tp3127
aa(F816.0
F14.0
tp3128
aaa(lp3129
(I4
F0.3977
tp3130
a(F1194.0
F66.0
tp3131
a(F916.0
F30.0
tp3132
aaa(lp3133
(I5
F0.0566
tp3134
a(lp3135
(I15
F0.0372
tp3136
a(lp3137
(I15
F0.0087
tp3138
a(F853.0
F24.0
tp3139
a(F874.0
F47.0
tp3140
aa(F1032.0
F93.0
tp3141
aa(F1279.0
F143.0
tp3142
aaa(lp3143
(I9
F0.1569
tp3144
a(lp3145
(I1
F0.0548
tp3146
a(lp3147
(I14
F0.065
tp3148
a(F912.0
F83.0
tp3149
a(F769.0
F113.0
tp3150
aa(lp3151
(I3
F0.0718
tp3152
a(F695.0
F99.0
tp3153
a(F1036.0
F244.0
tp3154
aaa(F624.0
F199.0
tp3155
aaa(lp3156
(I10
F0.1509
tp3157
a(lp3158
(I12
F0.0094
tp3159
a(lp3160
(I3
F0.0951
tp3161
a(lp3162
(I3
F0.0256
tp3163
a(F837.0
F30.0
tp3164
a(F1079.0
F92.0
tp3165
aa(F746.0
F126.0
tp3166
aa(F959.0
F209.0
tp3167
aa(lp3168
(I5
F0.112
tp3169
a(lp3170
(I12
F0.5014
tp3171
a(F900.0
F170.0
tp3172
a(lp3173
(I0
F0.8439
tp3174
a(F831.0
F338.0
tp3175
a(F1026.0
F281.0
tp3176
aaa(F620.0
F453.0
tp3177
aaaa(lp3178
(I10
F0.4302
tp3179
a(lp3180
(I14
F0.4399
tp3181
a(lp3182
(I4
F0.2618
tp3183
a(lp3184
(I15
F0.0757
tp3185
a(lp3186
(I9
F0.1062
tp3187
a(F700.0
F110.0
tp3188
a(F759.0
F157.0
tp3189
aa(lp3190
(I15
F0.142
tp3191
a(F604.0
F205.0
tp3192
a(F687.0
F156.0
tp3193
aaa(F595.0
F366.0
tp3194
aa(F387.0
F478.0
tp3195
aa(lp3196
(I1
F0.2212
tp3197
a(lp3198
(I15
F0.1533
tp3199
a(lp3200
(I2
F0.7425
tp3201
a(F635.0
F369.0
tp3202
a(F652.0
F694.0
tp3203
aa(F239.0
F655.0
tp3204
aa(lp3205
(I13
F0.2828
tp3206
a(F194.0
F610.0
tp3207
a(F53.0
F964.0
tp3208
aaaaa(lp3209
(I13
F0.136
tp3210
a(lp3211
(I1
F0.071
tp3212
a(lp3213
(I5
F0.048
tp3214
a(lp3215
(I9
F0.0591
tp3216
a(lp3217
(I13
F0.0259
tp3218
a(lp3219
(I1
F0.0103
tp3220
a(lp3221
(I11
F0.0146
tp3222
a(lp3223
(I7
F0.025
tp3224
a(lp3225
(I2
F0.1731
tp3226
a(F1395.0
F19.0
tp3227
a(lp3228
(I4
F1.0062
tp3229
a(F1328.0
F3.0
tp3230
a(F801.0
F7.0
tp3231
aaa(F1041.0
F35.0
tp3232
aa(F1003.0
F34.0
tp3233
aa(lp3234
(I9
F0.0062
tp3235
a(F1260.0
F30.0
tp3236
a(F1307.0
F74.0
tp3237
aaa(lp3238
(I1
F0.0331
tp3239
a(lp3240
(I6
F0.276
tp3241
a(F1141.0
F32.0
tp3242
a(F1067.0
F71.0
tp3243
aa(F1017.0
F89.0
tp3244
aaa(lp3245
(I10
F0.175
tp3246
a(F785.0
F58.0
tp3247
a(F807.0
F141.0
tp3248
aaa(lp3249
(I5
F0.0752
tp3250
a(lp3251
(I13
F0.0537
tp3252
a(F1308.0
F86.0
tp3253
a(F1363.0
F222.0
tp3254
aa(F1206.0
F260.0
tp3255
aaa(lp3256
(I5
F0.1122
tp3257
a(lp3258
(I13
F0.0641
tp3259
a(lp3260
(I2
F1.0227
tp3261
a(lp3262
(I8
F0.0567
tp3263
a(F808.0
F64.0
tp3264
a(F728.0
F111.0
tp3265
aa(F679.0
F146.0
tp3266
aa(lp3267
(I10
F0.1363
tp3268
a(F1014.0
F168.0
tp3269
a(lp3270
(I9
F0.1064
tp3271
a(F1121.0
F327.0
tp3272
a(F574.0
F259.0
tp3273
aaaa(lp3274
(I15
F0.0969
tp3275
a(lp3276
(I0
F0.4987
tp3277
a(lp3278
(I9
F0.0947
tp3279
a(F742.0
F140.0
tp3280
a(F644.0
F220.0
tp3281
aa(F683.0
F389.0
tp3282
aa(F829.0
F524.0
tp3283
aaaa(lp3284
(I12
F0.5012
tp3285
a(lp3286
(I6
F0.0268
tp3287
a(lp3288
(I5
F0.1343
tp3289
a(F1091.0
F110.0
tp3290
a(F1193.0
F358.0
tp3291
aa(F665.0
F555.0
tp3292
aa(lp3293
(I5
F0.2112
tp3294
a(lp3295
(I7
F0.1226
tp3296
a(F567.0
F396.0
tp3297
a(F483.0
F923.0
tp3298
aa(lp3299
(I6
F2.2705
tp3300
a(F168.0
F922.0
tp3301
a(F44.0
F825.0
tp3302
aaaaa(lp3303
(I13
F0.112
tp3304
a(lp3305
(I3
F0.0685
tp3306
a(lp3307
(I9
F0.0349
tp3308
a(lp3309
(I9
F0.0061
tp3310
a(lp3311
(I0
F0.4214
tp3312
a(lp3313
(I15
F0.0407
tp3314
a(lp3315
(I2
F0.1444
tp3316
a(lp3317
(I6
F0.0003
tp3318
a(F892.0
F16.0
tp3319
a(F845.0
F5.0
tp3320
aa(F786.0
F25.0
tp3321
aa(F1347.0
F62.0
tp3322
aa(lp3323
(I3
F0.0122
tp3324
a(lp3325
(I7
F-0.0048
tp3326
a(F1060.0
F2.0
tp3327
a(F897.0
F16.0
tp3328
aa(F801.0
F32.0
tp3329
aaa(lp3330
(I7
F0.0519
tp3331
a(lp3332
(I1
F0.0355
tp3333
a(lp3334
(I15
F0.0291
tp3335
a(lp3336
(I1
F0.0077
tp3337
a(F769.0
F8.0
tp3338
a(F882.0
F21.0
tp3339
aa(F923.0
F59.0
tp3340
aa(F745.0
F56.0
tp3341
aa(F816.0
F77.0
tp3342
aaa(lp3343
(I1
F0.0632
tp3344
a(lp3345
(I15
F0.0649
tp3346
a(lp3347
(I9
F0.0712
tp3348
a(lp3349
(I8
F0.5878
tp3350
a(F838.0
F66.0
tp3351
a(F1395.0
F66.0
tp3352
aa(F713.0
F78.0
tp3353
aa(lp3354
(I8
F0.2192
tp3355
a(F733.0
F65.0
tp3356
a(F714.0
F143.0
tp3357
aaa(F847.0
F142.0
tp3358
aaa(lp3359
(I15
F0.0739
tp3360
a(lp3361
(I11
F0.1133
tp3362
a(lp3363
(I10
F0.7635
tp3364
a(lp3365
(I12
F0.1247
tp3366
a(lp3367
(I7
F0.0611
tp3368
a(F824.0
F62.0
tp3369
a(F763.0
F114.0
tp3370
aa(F883.0
F162.0
tp3371
aa(F806.0
F187.0
tp3372
aa(lp3373
(I0
F0.3916
tp3374
a(F774.0
F186.0
tp3375
a(F565.0
F222.0
tp3376
aaa(lp3377
(I5
F0.0983
tp3378
a(F968.0
F283.0
tp3379
a(F946.0
F473.0
tp3380
aaaa(lp3381
(I10
F0.0891
tp3382
a(lp3383
(I2
F0.0334
tp3384
a(lp3385
(I9
F0.1285
tp3386
a(F838.0
F127.0
tp3387
a(lp3388
(I3
F0.1296
tp3389
a(F848.0
F86.0
tp3390
a(F1133.0
F289.0
tp3391
aaa(F666.0
F393.0
tp3392
aa(lp3393
(I6
F0.5994
tp3394
a(lp3395
(I9
F0.1944
tp3396
a(lp3397
(I1
F0.146
tp3398
a(F994.0
F368.0
tp3399
a(F416.0
F393.0
tp3400
aa(F237.0
F556.0
tp3401
aa(lp3402
(I1
F0.1869
tp3403
a(lp3404
(I15
F0.1396
tp3405
a(F646.0
F567.0
tp3406
a(F268.0
F544.0
tp3407
aa(lp3408
(I14
F1.829
tp3409
a(F189.0
F645.0
tp3410
a(F62.0
F1035.0
tp3411
aaaaaa(lp3412
(I1
F0.1244
tp3413
a(lp3414
(I7
F0.0619
tp3415
a(lp3416
(I5
F0.0516
tp3417
a(lp3418
(I3
F0.0249
tp3419
a(lp3420
(I1
F0.0133
tp3421
a(lp3422
(I7
F0.0222
tp3423
a(lp3424
(I11
F0.0401
tp3425
a(lp3426
(I2
F0.6122
tp3427
a(lp3428
(I4
F0.19
tp3429
a(lp3430
(I11
F-0.0159
tp3431
a(F886.0
F11.0
tp3432
a(F764.0
F19.0
tp3433
aa(F1112.0
F6.0
tp3434
aa(lp3435
(I13
F-0.0051
tp3436
a(F958.0
F1.0
tp3437
a(F814.0
F7.0
tp3438
aaa(F837.0
F34.0
tp3439
aa(F1244.0
F61.0
tp3440
aa(lp3441
(I11
F0.0278
tp3442
a(F1084.0
F32.0
tp3443
a(F762.0
F42.0
tp3444
aaa(lp3445
(I1
F0.0614
tp3446
a(lp3447
(I9
F0.0588
tp3448
a(lp3449
(I10
F0.1268
tp3450
a(F752.0
F51.0
tp3451
a(lp3452
(I15
F0.0327
tp3453
a(F1039.0
F25.0
tp3454
a(F752.0
F62.0
tp3455
aaa(F710.0
F86.0
tp3456
aa(F740.0
F84.0
tp3457
aaa(lp3458
(I9
F0.0868
tp3459
a(lp3460
(I10
F0.5801
tp3461
a(F1353.0
F140.0
tp3462
a(F1031.0
F162.0
tp3463
aa(F990.0
F277.0
tp3464
aaa(lp3465
(I12
F0.3431
tp3466
a(lp3467
(I11
F0.0889
tp3468
a(lp3469
(I10
F0.0049
tp3470
a(lp3471
(I11
F0.0322
tp3472
a(F1071.0
F54.0
tp3473
a(F840.0
F70.0
tp3474
aa(F814.0
F103.0
tp3475
aa(lp3476
(I15
F0.0881
tp3477
a(F734.0
F154.0
tp3478
a(F914.0
F217.0
tp3479
aaa(lp3480
(I13
F0.0993
tp3481
a(lp3482
(I9
F0.0794
tp3483
a(lp3484
(I3
F0.0601
tp3485
a(F802.0
F112.0
tp3486
a(F709.0
F170.0
tp3487
aa(F604.0
F194.0
tp3488
aa(lp3489
(I8
F1.0535
tp3490
a(F546.0
F318.0
tp3491
a(F441.0
F327.0
tp3492
aaaaa(lp3493
(I4
F0.2725
tp3494
a(lp3495
(I4
F0.0009
tp3496
a(lp3497
(I10
F0.0018
tp3498
a(lp3499
(I11
F0.1218
tp3500
a(F755.0
F110.0
tp3501
a(F1204.0
F242.0
tp3502
aa(F707.0
F361.0
tp3503
aa(F817.0
F437.0
tp3504
aa(lp3505
(I11
F0.2238
tp3506
a(lp3507
(I13
F0.1357
tp3508
a(lp3509
(I7
F0.1077
tp3510
a(F684.0
F257.0
tp3511
a(F454.0
F409.0
tp3512
aa(lp3513
(I5
F0.1675
tp3514
a(F362.0
F416.0
tp3515
a(F388.0
F998.0
tp3516
aaa(lp3517
(I15
F0.2201
tp3518
a(F150.0
F653.0
tp3519
a(F56.0
F878.0
tp3520
aaaaa(lp3521
(I3
F0.1218
tp3522
a(lp3523
(I5
F0.0588
tp3524
a(lp3525
(I3
F0.0249
tp3526
a(lp3527
(I15
F0.0625
tp3528
a(lp3529
(I11
F0.0552
tp3530
a(lp3531
(I7
F0.013
tp3532
a(lp3533
(I9
F0.0176
tp3534
a(lp3535
(I3
F-0.0093
tp3536
a(lp3537
(I3
F-0.0385
tp3538
a(F781.0
F6.0
tp3539
a(F1315.0
F2.0
tp3540
aa(F1381.0
F15.0
tp3541
aa(F755.0
F22.0
tp3542
aa(lp3543
(I10
F0.0576
tp3544
a(F795.0
F15.0
tp3545
a(lp3546
(I6
F0.9675
tp3547
a(F935.0
F54.0
tp3548
a(F796.0
F20.0
tp3549
aaaa(F852.0
F65.0
tp3550
aa(lp3551
(I12
F0.0547
tp3552
a(F1411.0
F42.0
tp3553
a(F815.0
F103.0
tp3554
aaa(lp3555
(I9
F0.0794
tp3556
a(lp3557
(I7
F0.0417
tp3558
a(lp3559
(I15
F0.0275
tp3560
a(lp3561
(I9
F0.0239
tp3562
a(F981.0
F28.0
tp3563
a(F761.0
F41.0
tp3564
aa(F1025.0
F94.0
tp3565
aa(lp3566
(I9
F0.043
tp3567
a(F934.0
F82.0
tp3568
a(F863.0
F108.0
tp3569
aaa(F1180.0
F216.0
tp3570
aaa(lp3571
(I12
F0.1123
tp3572
a(lp3573
(I10
F0.0017
tp3574
a(lp3575
(I11
F0.0995
tp3576
a(F1303.0
F78.0
tp3577
a(F802.0
F130.0
tp3578
aa(F931.0
F191.0
tp3579
aa(lp3580
(I13
F0.14
tp3581
a(lp3582
(I15
F0.081
tp3583
a(lp3584
(I9
F0.0825
tp3585
a(lp3586
(I2
F1.1081
tp3587
a(F1152.0
F124.0
tp3588
a(F650.0
F137.0
tp3589
aa(F795.0
F228.0
tp3590
aa(lp3591
(I7
F0.0985
tp3592
a(F687.0
F214.0
tp3593
a(F615.0
F367.0
tp3594
aaa(F415.0
F384.0
tp3595
aaaa(lp3596
(I13
F0.1789
tp3597
a(lp3598
(I6
F0.2733
tp3599
a(lp3600
(I10
F0.0845
tp3601
a(lp3602
(I9
F0.084
tp3603
a(F696.0
F124.0
tp3604
a(lp3605
(I9
F0.137
tp3606
a(F652.0
F188.0
tp3607
a(F688.0
F143.0
tp3608
aaa(lp3609
(I13
F0.0956
tp3610
a(F637.0
F235.0
tp3611
a(F565.0
F381.0
tp3612
aaa(lp3613
(I7
F0.1226
tp3614
a(F764.0
F337.0
tp3615
a(F721.0
F858.0
tp3616
aaa(lp3617
(I10
F0.0057
tp3618
a(F848.0
F240.0
tp3619
a(lp3620
(I13
F0.2178
tp3621
a(F279.0
F542.0
tp3622
a(lp3623
(I12
F1.9635
tp3624
a(F138.0
F627.0
tp3625
a(F64.0
F1037.0
tp3626
aaaaaa(lp3627
(I11
F0.114
tp3628
a(lp3629
(I5
F0.0855
tp3630
a(lp3631
(I9
F0.0534
tp3632
a(lp3633
(I5
F0.0532
tp3634
a(lp3635
(I15
F0.0372
tp3636
a(lp3637
(I13
F0.0105
tp3638
a(lp3639
(I5
F0.0088
tp3640
a(lp3641
(I14
F0.0427
tp3642
a(lp3643
(I7
F-0.0127
tp3644
a(F864.0
F3.0
tp3645
a(F834.0
F16.0
tp3646
aa(lp3647
(I13
F-0.0145
tp3648
a(F907.0
F0.0
tp3649
a(F815.0
F2.0
tp3650
aaa(F1408.0
F36.0
tp3651
aa(lp3652
(I3
F0.0344
tp3653
a(lp3654
(I0
F0.8407
tp3655
a(F1432.0
F42.0
tp3656
a(F802.0
F10.0
tp3657
aa(F848.0
F50.0
tp3658
aaa(lp3659
(I5
F-0.0045
tp3660
a(F1314.0
F33.0
tp3661
a(lp3662
(I1
F0.0347
tp3663
a(lp3664
(I1
F0.0076
tp3665
a(F760.0
F55.0
tp3666
a(F954.0
F47.0
tp3667
aa(F792.0
F77.0
tp3668
aaaa(lp3669
(I8
F0.4268
tp3670
a(F896.0
F58.0
tp3671
a(F701.0
F105.0
tp3672
aaa(lp3673
(I14
F0.5215
tp3674
a(lp3675
(I4
F0.115
tp3676
a(lp3677
(I11
F0.0726
tp3678
a(F755.0
F37.0
tp3679
a(F726.0
F62.0
tp3680
aa(F974.0
F142.0
tp3681
aa(lp3682
(I15
F0.07
tp3683
a(F901.0
F104.0
tp3684
a(F704.0
F227.0
tp3685
aaaa(lp3686
(I2
F0.4515
tp3687
a(lp3688
(I4
F0.3782
tp3689
a(lp3690
(I6
F0.0008
tp3691
a(lp3692
(I9
F0.0813
tp3693
a(F673.0
F92.0
tp3694
a(F722.0
F82.0
tp3695
aa(F688.0
F198.0
tp3696
aa(F547.0
F257.0
tp3697
aa(lp3698
(I5
F0.1321
tp3699
a(F1090.0
F416.0
tp3700
a(F430.0
F425.0
tp3701
aaaa(lp3702
(I12
F0.7063
tp3703
a(lp3704
(I8
F0.0308
tp3705
a(lp3706
(I6
F0.0145
tp3707
a(lp3708
(I1
F0.1132
tp3709
a(lp3710
(I5
F0.0538
tp3711
a(F812.0
F57.0
tp3712
a(F719.0
F92.0
tp3713
aa(lp3714
(I7
F0.1479
tp3715
a(F778.0
F187.0
tp3716
a(F788.0
F141.0
tp3717
aaa(F610.0
F292.0
tp3718
aa(lp3719
(I3
F0.1382
tp3720
a(F1152.0
F389.0
tp3721
a(lp3722
(I9
F0.173
tp3723
a(F572.0
F372.0
tp3724
a(F306.0
F508.0
tp3725
aaaa(lp3726
(I5
F0.1986
tp3727
a(lp3728
(I1
F0.1331
tp3729
a(F772.0
F447.0
tp3730
a(F570.0
F822.0
tp3731
aa(lp3732
(I13
F0.2682
tp3733
a(F148.0
F639.0
tp3734
a(F77.0
F1097.0
tp3735
aaaaa(lp3736
(I1
F0.1283
tp3737
a(lp3738
(I5
F0.0606
tp3739
a(lp3740
(I3
F0.0245
tp3741
a(lp3742
(I13
F0.0543
tp3743
a(lp3744
(I5
F0.0112
tp3745
a(lp3746
(I9
F0.0177
tp3747
a(lp3748
(I14
F0.286
tp3749
a(lp3750
(I2
F0.1464
tp3751
a(F1388.0
F31.0
tp3752
a(F1360.0
F7.0
tp3753
aa(lp3754
(I15
F0.0311
tp3755
a(F1399.0
F2.0
tp3756
a(F778.0
F8.0
tp3757
aaa(F1137.0
F53.0
tp3758
aa(lp3759
(I9
F0.0137
tp3760
a(F1384.0
F40.0
tp3761
a(F1258.0
F68.0
tp3762
aaa(F1189.0
F118.0
tp3763
aa(lp3764
(I9
F0.0567
tp3765
a(lp3766
(I15
F0.044
tp3767
a(lp3768
(I15
F0.0028
tp3769
a(F1019.0
F33.0
tp3770
a(lp3771
(I11
F0.0351
tp3772
a(F926.0
F37.0
tp3773
a(F755.0
F61.0
tp3774
aaa(F1227.0
F149.0
tp3775
aa(lp3776
(I11
F0.1227
tp3777
a(lp3778
(I12
F0.5922
tp3779
a(F887.0
F81.0
tp3780
a(F662.0
F111.0
tp3781
aa(F659.0
F164.0
tp3782
aaaa(lp3783
(I6
F0.0338
tp3784
a(lp3785
(I12
F0.1127
tp3786
a(lp3787
(I3
F0.1058
tp3788
a(lp3789
(I9
F0.0936
tp3790
a(F919.0
F63.0
tp3791
a(F769.0
F85.0
tp3792
aa(F797.0
F150.0
tp3793
aa(F1052.0
F289.0
tp3794
aa(lp3795
(I5
F0.1296
tp3796
a(lp3797
(I9
F0.0805
tp3798
a(lp3799
(I15
F0.0736
tp3800
a(F1315.0
F167.0
tp3801
a(F574.0
F196.0
tp3802
aa(lp3803
(I14
F1.2405
tp3804
a(F1080.0
F403.0
tp3805
a(F614.0
F310.0
tp3806
aaa(F421.0
F348.0
tp3807
aaaa(lp3808
(I10
F0.327
tp3809
a(lp3810
(I10
F0.0015
tp3811
a(lp3812
(I6
F0.0277
tp3813
a(lp3814
(I13
F0.1618
tp3815
a(F1193.0
F307.0
tp3816
a(F838.0
F144.0
tp3817
aa(F524.0
F295.0
tp3818
aa(F836.0
F579.0
tp3819
aa(lp3820
(I15
F0.176
tp3821
a(lp3822
(I8
F1.8995
tp3823
a(lp3824
(I5
F0.1729
tp3825
a(lp3826
(I7
F0.1096
tp3827
a(F634.0
F335.0
tp3828
a(F494.0
F398.0
tp3829
aa(F275.0
F536.0
tp3830
aa(F233.0
F594.0
tp3831
aa(lp3832
(I5
F0.2837
tp3833
a(F179.0
F743.0
tp3834
a(F48.0
F732.0
tp3835
aaaaa(lp3836
(I13
F0.1199
tp3837
a(lp3838
(I5
F0.06
tp3839
a(lp3840
(I9
F0.0433
tp3841
a(lp3842
(I7
F0.0234
tp3843
a(lp3844
(I1
F0.0165
tp3845
a(lp3846
(I5
F0.0045
tp3847
a(lp3848
(I13
F0.0038
tp3849
a(lp3850
(I2
F0.2101
tp3851
a(F1226.0
F8.0
tp3852
a(F1.543
F1.0
tp3853
aa(F1083.0
F11.0
tp3854
aa(F1405.0
F35.0
tp3855
aa(lp3856
(I4
F0.1928
tp3857
a(F778.0
F41.0
tp3858
a(F1092.0
F33.0
tp3859
aaa(lp3860
(I1
F0.0413
tp3861
a(lp3862
(I13
F0.0319
tp3863
a(lp3864
(I15
F0.0187
tp3865
a(F780.0
F17.0
tp3866
a(lp3867
(I12
F0.273
tp3868
a(F1101.0
F34.0
tp3869
a(F770.0
F52.0
tp3870
aaa(F937.0
F65.0
tp3871
aa(F954.0
F86.0
tp3872
aaa(lp3873
(I11
F0.0903
tp3874
a(lp3875
(I3
F0.03
tp3876
a(F1021.0
F53.0
tp3877
a(lp3878
(I14
F0.5629
tp3879
a(F938.0
F64.0
tp3880
a(F766.0
F103.0
tp3881
aaa(lp3882
(I3
F0.0672
tp3883
a(F773.0
F93.0
tp3884
a(F636.0
F166.0
tp3885
aaaa(lp3886
(I10
F0.5108
tp3887
a(lp3888
(I3
F0.1121
tp3889
a(lp3890
(I13
F0.0809
tp3891
a(lp3892
(I10
F0.0075
tp3893
a(F1021.0
F73.0
tp3894
a(F767.0
F104.0
tp3895
aa(F956.0
F187.0
tp3896
aa(lp3897
(I4
F0.2517
tp3898
a(lp3899
(I9
F0.093
tp3900
a(F705.0
F108.0
tp3901
a(F655.0
F174.0
tp3902
aa(F546.0
F254.0
tp3903
aaa(lp3904
(I15
F0.0994
tp3905
a(lp3906
(I1
F0.1014
tp3907
a(lp3908
(I14
F0.5955
tp3909
a(F626.0
F189.0
tp3910
a(F1016.0
F169.0
tp3911
aa(F868.0
F333.0
tp3912
aa(F478.0
F335.0
tp3913
aaaa(lp3914
(I12
F0.299
tp3915
a(lp3916
(I10
F0.0056
tp3917
a(lp3918
(I1
F0.098
tp3919
a(F839.0
F69.0
tp3920
a(lp3921
(I15
F0.0909
tp3922
a(F663.0
F125.0
tp3923
a(F1091.0
F327.0
tp3924
aaa(F803.0
F470.0
tp3925
aa(lp3926
(I1
F0.2075
tp3927
a(lp3928
(I1
F0.1152
tp3929
a(F774.0
F458.0
tp3930
a(lp3931
(I15
F0.1539
tp3932
a(lp3933
(I7
F0.1263
tp3934
a(F436.0
F381.0
tp3935
a(F330.0
F480.0
tp3936
aa(F289.0
F604.0
tp3937
aaa(lp3938
(I1
F0.2734
tp3939
a(F204.0
F661.0
tp3940
a(F87.0
F1140.0
tp3941
aaaaa(lp3942
(I5
F0.127
tp3943
a(lp3944
(I15
F0.063
tp3945
a(lp3946
(I3
F0.0705
tp3947
a(lp3948
(I13
F0.029
tp3949
a(lp3950
(I1
F0.0103
tp3951
a(lp3952
(I7
F0.0063
tp3953
a(lp3954
(I11
F0.0059
tp3955
a(lp3956
(I1
F-0.0116
tp3957
a(lp3958
(I3
F-0.0336
tp3959
a(F827.0
F0.0
tp3960
a(F816.0
F3.0
tp3961
aa(F744.0
F10.0
tp3962
aa(F761.0
F16.0
tp3963
aa(lp3964
(I14
F0.181
tp3965
a(F827.0
F36.0
tp3966
a(F892.0
F18.0
tp3967
aaa(lp3968
(I8
F0.0001
tp3969
a(F950.0
F57.0
tp3970
a(lp3971
(I12
F0.5502
tp3972
a(F939.0
F18.0
tp3973
a(F1219.0
F63.0
tp3974
aaaa(lp3975
(I11
F0.0983
tp3976
a(lp3977
(I13
F0.0555
tp3978
a(lp3979
(I2
F0.2388
tp3980
a(F866.0
F35.0
tp3981
a(lp3982
(I9
F0.0366
tp3983
a(F752.0
F36.0
tp3984
a(F812.0
F64.0
tp3985
aaa(F1352.0
F147.0
tp3986
aa(F693.0
F100.0
tp3987
aaa(lp3988
(I14
F0.2763
tp3989
a(lp3990
(I8
F0.6431
tp3991
a(lp3992
(I9
F0.1141
tp3993
a(lp3994
(I3
F0.1111
tp3995
a(F773.0
F85.0
tp3996
a(F779.0
F144.0
tp3997
aa(F618.0
F159.0
tp3998
aa(F521.0
F252.0
tp3999
aa(F903.0
F127.0
tp4000
aaa(lp4001
(I8
F0.0029
tp4002
a(lp4003
(I5
F0.0542
tp4004
a(lp4005
(I3
F0.0083
tp4006
a(F1131.0
F36.0
tp4007
a(F874.0
F68.0
tp4008
aa(lp4009
(I15
F0.1201
tp4010
a(F837.0
F159.0
tp4011
a(F773.0
F84.0
tp4012
aaa(lp4013
(I13
F0.0794
tp4014
a(lp4015
(I5
F0.0586
tp4016
a(F1369.0
F161.0
tp4017
a(F769.0
F192.0
tp4018
aa(lp4019
(I5
F0.0921
tp4020
a(F1103.0
F372.0
tp4021
a(lp4022
(I13
F0.1163
tp4023
a(F534.0
F239.0
tp4024
a(F506.0
F305.0
tp4025
aaaaaa(lp4026
(I12
F0.2215
tp4027
a(lp4028
(I14
F0.0364
tp4029
a(lp4030
(I15
F0.0457
tp4031
a(F773.0
F205.0
tp4032
a(lp4033
(I11
F0.1451
tp4034
a(F699.0
F123.0
tp4035
a(F906.0
F200.0
tp4036
aaa(F600.0
F481.0
tp4037
aa(lp4038
(I12
F1.2823
tp4039
a(lp4040
(I1
F0.1967
tp4041
a(lp4042
(I7
F0.1322
tp4043
a(F521.0
F303.0
tp4044
a(F432.0
F540.0
tp4045
aa(F232.0
F568.0
tp4046
aa(lp4047
(I11
F0.2404
tp4048
a(lp4049
(I7
F0.165
tp4050
a(F423.0
F538.0
tp4051
a(F173.0
F703.0
tp4052
aa(F90.0
F1024.0
tp4053
aaaaa(lp4054
(I5
F0.1336
tp4055
a(lp4056
(I9
F0.0718
tp4057
a(lp4058
(I1
F0.0495
tp4059
a(lp4060
(I5
F0.0167
tp4061
a(lp4062
(I1
F-0.0088
tp4063
a(lp4064
(I9
F0.008
tp4065
a(lp4066
(I11
F-0.0569
tp4067
a(F780.0
F11.0
tp4068
a(lp4069
(I12
F0.1293
tp4070
a(F1106.0
F8.0
tp4071
a(F1.31
F1.0
tp4072
aaa(F841.0
F25.0
tp4073
aa(lp4074
(I13
F0.0067
tp4075
a(lp4076
(I15
F0.0044
tp4077
a(F1018.0
F11.0
tp4078
a(F803.0
F21.0
tp4079
aa(lp4080
(I15
F0.0261
tp4081
a(F848.0
F19.0
tp4082
a(F851.0
F55.0
tp4083
aaaa(lp4084
(I13
F0.0452
tp4085
a(lp4086
(I15
F0.0503
tp4087
a(lp4088
(I14
F0.0004
tp4089
a(F1151.0
F50.0
tp4090
a(lp4091
(I11
F0.0197
tp4092
a(F939.0
F13.0
tp4093
a(F760.0
F29.0
tp4094
aaa(F916.0
F60.0
tp4095
aa(lp4096
(I6
F0.3074
tp4097
a(F781.0
F59.0
tp4098
a(F815.0
F135.0
tp4099
aaaa(lp4100
(I15
F0.0828
tp4101
a(lp4102
(I3
F0.0694
tp4103
a(lp4104
(I0
F0.8694
tp4105
a(F922.0
F56.0
tp4106
a(F678.0
F69.0
tp4107
aa(lp4108
(I14
F0.0163
tp4109
a(F944.0
F150.0
tp4110
a(F830.0
F78.0
tp4111
aaa(F653.0
F178.0
tp4112
aaa(lp4113
(I10
F0.0889
tp4114
a(lp4115
(I1
F0.0831
tp4116
a(F1597.0
F134.0
tp4117
a(lp4118
(I3
F0.121
tp4119
a(F955.0
F141.0
tp4120
a(F743.0
F206.0
tp4121
aaa(lp4122
(I9
F0.1357
tp4123
a(lp4124
(I7
F0.1144
tp4125
a(lp4126
(I15
F0.0957
tp4127
a(lp4128
(I5
F0.0603
tp4129
a(F763.0
F104.0
tp4130
a(lp4131
(I10
F1.0417
tp4132
a(F719.0
F187.0
tp4133
a(F712.0
F146.0
tp4134
aaa(F575.0
F238.0
tp4135
aa(F530.0
F277.0
tp4136
aa(lp4137
(I8
F0.6417
tp4138
a(F593.0
F237.0
tp4139
a(F491.0
F400.0
tp4140
aaaaa(lp4141
(I13
F0.1798
tp4142
a(lp4143
(I2
F0.3215
tp4144
a(lp4145
(I12
F0.0895
tp4146
a(lp4147
(I9
F0.1195
tp4148
a(F706.0
F131.0
tp4149
a(F604.0
F205.0
tp4150
aa(F590.0
F397.0
tp4151
aa(lp4152
(I7
F0.1224
tp4153
a(F529.0
F359.0
tp4154
a(F476.0
F783.0
tp4155
aaa(lp4156
(I12
F0.1553
tp4157
a(F794.0
F291.0
tp4158
a(lp4159
(I13
F0.2613
tp4160
a(F381.0
F1043.0
tp4161
a(F125.0
F1324.0
tp4162
aaaaa(lp4163
(I9
F0.1218
tp4164
a(lp4165
(I1
F0.0709
tp4166
a(lp4167
(I13
F0.0537
tp4168
a(lp4169
(I9
F0.0106
tp4170
a(lp4171
(I1
F0.029
tp4172
a(lp4173
(I0
F0.578
tp4174
a(lp4175
(I7
F0.013
tp4176
a(lp4177
(I6
F0.0182
tp4178
a(F1354.0
F20.0
tp4179
a(F970.0
F3.0
tp4180
aa(lp4181
(I4
F0.0274
tp4182
a(F970.0
F28.0
tp4183
a(F704.0
F29.0
tp4184
aaa(lp4185
(I2
F1.0897
tp4186
a(F1178.0
F16.0
tp4187
a(F967.0
F5.0
tp4188
aaa(F852.0
F56.0
tp4189
aa(lp4190
(I7
F0.0705
tp4191
a(lp4192
(I11
F0.0615
tp4193
a(lp4194
(I2
F1.3142
tp4195
a(lp4196
(I1
F0.0326
tp4197
a(lp4198
(I14
F0.2241
tp4199
a(F927.0
F35.0
tp4200
a(F1443.0
F36.0
tp4201
aa(F1166.0
F57.0
tp4202
aa(F739.0
F50.0
tp4203
aa(F877.0
F104.0
tp4204
aa(F732.0
F84.0
tp4205
aaa(lp4206
(I6
F0.0057
tp4207
a(lp4208
(I3
F0.035
tp4209
a(F923.0
F60.0
tp4210
a(F772.0
F78.0
tp4211
aa(lp4212
(I15
F0.0849
tp4213
a(lp4214
(I5
F0.0588
tp4215
a(F802.0
F101.0
tp4216
a(F666.0
F130.0
tp4217
aa(F590.0
F188.0
tp4218
aaaa(lp4219
(I13
F0.0743
tp4220
a(lp4221
(I4
F0.8718
tp4222
a(lp4223
(I6
F0.197
tp4224
a(lp4225
(I0
F0.0377
tp4226
a(F822.0
F104.0
tp4227
a(F832.0
F93.0
tp4228
aa(F656.0
F138.0
tp4229
aa(F732.0
F177.0
tp4230
aa(lp4231
(I8
F0.2008
tp4232
a(lp4233
(I11
F0.1008
tp4234
a(F827.0
F192.0
tp4235
a(F677.0
F186.0
tp4236
aa(lp4237
(I13
F0.1009
tp4238
a(F908.0
F352.0
tp4239
a(F796.0
F564.0
tp4240
aaaaa(lp4241
(I10
F0.091
tp4242
a(lp4243
(I14
F0.0581
tp4244
a(lp4245
(I3
F0.147
tp4246
a(lp4247
(I3
F0.0948
tp4248
a(F803.0
F59.0
tp4249
a(F695.0
F89.0
tp4250
aa(F1096.0
F250.0
tp4251
aa(F537.0
F346.0
tp4252
aa(lp4253
(I5
F0.2011
tp4254
a(lp4255
(I1
F0.1253
tp4256
a(lp4257
(I10
F0.7031
tp4258
a(F597.0
F233.0
tp4259
a(F521.0
F350.0
tp4260
aa(lp4261
(I13
F0.1368
tp4262
a(F567.0
F415.0
tp4263
a(lp4264
(I6
F0.8001
tp4265
a(F467.0
F512.0
tp4266
a(F273.0
F583.0
tp4267
aaaa(lp4268
(I5
F0.2829
tp4269
a(F248.0
F855.0
tp4270
a(F79.0
F1117.0
tp4271
aaaaa(lp4272
(I7
F0.1188
tp4273
a(lp4274
(I9
F0.0834
tp4275
a(lp4276
(I11
F0.0252
tp4277
a(lp4278
(I9
F0.0061
tp4279
a(lp4280
(I13
F0.0164
tp4281
a(lp4282
(I3
F0.0074
tp4283
a(lp4284
(I6
F0.1178
tp4285
a(F1533.0
F18.0
tp4286
a(lp4287
(I7
F0.0074
tp4288
a(F1251.0
F2.0
tp4289
a(F762.0
F9.0
tp4290
aaa(F1363.0
F46.0
tp4291
aa(F1014.0
F49.0
tp4292
aa(lp4293
(I13
F0.0482
tp4294
a(lp4295
(I1
F0.0138
tp4296
a(F1276.0
F28.0
tp4297
a(lp4298
(I3
F0.0363
tp4299
a(F907.0
F40.0
tp4300
a(F730.0
F63.0
tp4301
aaa(F648.0
F105.0
tp4302
aaa(lp4303
(I0
F1.6618
tp4304
a(lp4305
(I13
F0.0817
tp4306
a(lp4307
(I5
F0.0603
tp4308
a(lp4309
(I15
F0.0642
tp4310
a(lp4311
(I11
F0.0559
tp4312
a(lp4313
(I14
F0.2243
tp4314
a(F836.0
F42.0
tp4315
a(F1215.0
F32.0
tp4316
aa(lp4317
(I8
F0.1755
tp4318
a(F791.0
F47.0
tp4319
a(F742.0
F69.0
tp4320
aaa(F860.0
F93.0
tp4321
aa(lp4322
(I4
F0.6106
tp4323
a(F1179.0
F135.0
tp4324
a(F809.0
F136.0
tp4325
aaa(F814.0
F183.0
tp4326
aa(F700.0
F141.0
tp4327
aaa(lp4328
(I0
F0.4984
tp4329
a(lp4330
(I3
F0.1502
tp4331
a(lp4332
(I14
F0.3805
tp4333
a(lp4334
(I3
F0.0899
tp4335
a(lp4336
(I9
F0.122
tp4337
a(F792.0
F53.0
tp4338
a(F811.0
F113.0
tp4339
aa(F1207.0
F259.0
tp4340
aa(F747.0
F234.0
tp4341
aa(F604.0
F253.0
tp4342
aa(lp4343
(I8
F1.7462
tp4344
a(lp4345
(I11
F0.1359
tp4346
a(F1052.0
F371.0
tp4347
a(F602.0
F389.0
tp4348
aa(F431.0
F373.0
tp4349
aaaa(lp4350
(I4
F0.2309
tp4351
a(lp4352
(I8
F0.0299
tp4353
a(lp4354
(I11
F0.0531
tp4355
a(F785.0
F40.0
tp4356
a(F2008.0
F396.0
tp4357
aa(F835.0
F505.0
tp4358
aa(lp4359
(I9
F0.1726
tp4360
a(lp4361
(I5
F0.1299
tp4362
a(F622.0
F319.0
tp4363
a(lp4364
(I14
F0.9761
tp4365
a(F449.0
F433.0
tp4366
a(F247.0
F551.0
tp4367
aaa(lp4368
(I5
F0.2172
tp4369
a(F258.0
F532.0
tp4370
a(F138.0
F1383.0
tp4371
aaaaa(lp4372
(I1
F0.1213
tp4373
a(lp4374
(I9
F0.0646
tp4375
a(lp4376
(I13
F0.0548
tp4377
a(lp4378
(I6
F1.8235
tp4379
a(lp4380
(I5
F0.0537
tp4381
a(lp4382
(I14
F1.7698
tp4383
a(lp4384
(I11
F0.0157
tp4385
a(lp4386
(I3
F0.0074
tp4387
a(lp4388
(I7
F0.0215
tp4389
a(lp4390
(I12
F0.1436
tp4391
a(F1228.0
F20.0
tp4392
a(lp4393
(I4
F0.4255
tp4394
a(F809.0
F7.0
tp4395
a(F1.306
F1.0
tp4396
aaa(F1169.0
F34.0
tp4397
aa(lp4398
(I15
F0.0181
tp4399
a(F1106.0
F19.0
tp4400
a(F879.0
F38.0
tp4401
aaa(lp4402
(I7
F0.0402
tp4403
a(lp4404
(I1
F0.0357
tp4405
a(lp4406
(I9
F0.027
tp4407
a(F1157.0
F41.0
tp4408
a(F849.0
F16.0
tp4409
aa(F787.0
F50.0
tp4410
aa(F1020.0
F68.0
tp4411
aaa(F774.0
F35.0
tp4412
aa(lp4413
(I6
F0.2529
tp4414
a(F919.0
F81.0
tp4415
a(F699.0
F113.0
tp4416
aaa(F729.0
F58.0
tp4417
aa(lp4418
(I13
F0.0826
tp4419
a(lp4420
(I4
F0.4478
tp4421
a(F737.0
F60.0
tp4422
a(F845.0
F139.0
tp4423
aa(F758.0
F197.0
tp4424
aaa(lp4425
(I4
F0.1033
tp4426
a(lp4427
(I8
F0.324
tp4428
a(lp4429
(I10
F0.0433
tp4430
a(lp4431
(I5
F0.0821
tp4432
a(F1393.0
F98.0
tp4433
a(F914.0
F122.0
tp4434
aa(F674.0
F122.0
tp4435
aa(F750.0
F209.0
tp4436
aa(lp4437
(I5
F0.112
tp4438
a(lp4439
(I7
F0.0918
tp4440
a(lp4441
(I9
F0.0803
tp4442
a(F861.0
F116.0
tp4443
a(lp4444
(I9
F0.1034
tp4445
a(F633.0
F159.0
tp4446
a(F586.0
F182.0
tp4447
aaa(F715.0
F303.0
tp4448
aa(F583.0
F478.0
tp4449
aaaa(lp4450
(I6
F0.5796
tp4451
a(lp4452
(I2
F0.0755
tp4453
a(lp4454
(I15
F0.0653
tp4455
a(F1132.0
F191.0
tp4456
a(lp4457
(I3
F0.1514
tp4458
a(F601.0
F186.0
tp4459
a(F931.0
F391.0
tp4460
aaa(lp4461
(I12
F0.7904
tp4462
a(lp4463
(I5
F0.1339
tp4464
a(F917.0
F314.0
tp4465
a(F718.0
F528.0
tp4466
aa(F354.0
F521.0
tp4467
aaa(lp4468
(I15
F0.172
tp4469
a(lp4470
(I10
F1.5461
tp4471
a(F782.0
F755.0
tp4472
a(F307.0
F500.0
tp4473
aa(lp4474
(I1
F0.2735
tp4475
a(F178.0
F697.0
tp4476
a(F47.0
F764.0
tp4477
aaaaa(lp4478
(I13
F0.1292
tp4479
a(lp4480
(I13
F0.0728
tp4481
a(lp4482
(I3
F0.0684
tp4483
a(lp4484
(I5
F0.0496
tp4485
a(lp4486
(I1
F0.0137
tp4487
a(lp4488
(I11
F0.0432
tp4489
a(lp4490
(I11
F-0.0573
tp4491
a(F959.0
F34.0
tp4492
a(lp4493
(I7
F0.0133
tp4494
a(lp4495
(I11
F0.0059
tp4496
a(lp4497
(I4
F0.7076
tp4498
a(lp4499
(I5
F-0.017
tp4500
a(F825.0
F2.0
tp4501
a(F806.0
F9.0
tp4502
aa(F940.0
F0.0
tp4503
aa(F901.0
F14.0
tp4504
aa(lp4505
(I13
F-0.0001
tp4506
a(F829.0
F32.0
tp4507
a(F1320.0
F21.0
tp4508
aaaa(F819.0
F44.0
tp4509
aa(lp4510
(I11
F0.0516
tp4511
a(lp4512
(I13
F0.0379
tp4513
a(lp4514
(I7
F0.0251
tp4515
a(F1432.0
F29.0
tp4516
a(F1431.0
F56.0
tp4517
aa(F898.0
F73.0
tp4518
aa(F1158.0
F114.0
tp4519
aaa(lp4520
(I9
F0.0564
tp4521
a(lp4522
(I6
F0.4092
tp4523
a(F844.0
F50.0
tp4524
a(F769.0
F116.0
tp4525
aa(F684.0
F107.0
tp4526
aaa(lp4527
(I11
F0.1144
tp4528
a(lp4529
(I15
F0.0649
tp4530
a(lp4531
(I7
F0.0678
tp4532
a(lp4533
(I1
F0.0932
tp4534
a(F749.0
F48.0
tp4535
a(F757.0
F82.0
tp4536
aa(F742.0
F143.0
tp4537
aa(F632.0
F137.0
tp4538
aa(F868.0
F289.0
tp4539
aaa(lp4540
(I3
F0.0933
tp4541
a(lp4542
(I12
F0.0864
tp4543
a(F1102.0
F107.0
tp4544
a(lp4545
(I7
F0.0719
tp4546
a(F1020.0
F203.0
tp4547
a(F849.0
F281.0
tp4548
aaa(lp4549
(I2
F0.2555
tp4550
a(lp4551
(I11
F0.1143
tp4552
a(F715.0
F153.0
tp4553
a(F715.0
F260.0
tp4554
aa(lp4555
(I15
F0.0947
tp4556
a(F1001.0
F448.0
tp4557
a(F442.0
F350.0
tp4558
aaaaa(lp4559
(I12
F0.2711
tp4560
a(lp4561
(I14
F0.0412
tp4562
a(F2427.0
F385.0
tp4563
a(F537.0
F425.0
tp4564
aa(lp4565
(I3
F0.1751
tp4566
a(lp4567
(I1
F0.1268
tp4568
a(F733.0
F447.0
tp4569
a(F550.0
F778.0
tp4570
aa(lp4571
(I11
F0.2343
tp4572
a(F378.0
F919.0
tp4573
a(F144.0
F1328.0
tp4574
aaaaa(lp4575
(I4
F2.4082
tp4576
a(lp4577
(I1
F0.0936
tp4578
a(lp4579
(I15
F0.0405
tp4580
a(lp4581
(I1
F0.0476
tp4582
a(lp4583
(I5
F0.0456
tp4584
a(lp4585
(I5
F0.006
tp4586
a(lp4587
(I13
F0.0131
tp4588
a(lp4589
(I0
F0.0013
tp4590
a(F1048.0
F17.0
tp4591
a(lp4592
(I8
F0.8478
tp4593
a(F1534.0
F10.0
tp4594
a(F798.0
F1.0
tp4595
aaa(F994.0
F29.0
tp4596
aa(lp4597
(I0
F0.8477
tp4598
a(lp4599
(I2
F0.2987
tp4600
a(F1469.0
F57.0
tp4601
a(F917.0
F63.0
tp4602
aa(F1244.0
F18.0
tp4603
aaa(F889.0
F99.0
tp4604
aa(lp4605
(I14
F0.2012
tp4606
a(lp4607
(I11
F0.0707
tp4608
a(F908.0
F90.0
tp4609
a(F644.0
F154.0
tp4610
aa(F722.0
F56.0
tp4611
aaa(lp4612
(I9
F0.0551
tp4613
a(lp4614
(I5
F0.0494
tp4615
a(lp4616
(I12
F0.4646
tp4617
a(lp4618
(I3
F0.0088
tp4619
a(F1375.0
F27.0
tp4620
a(F827.0
F54.0
tp4621
aa(F1256.0
F105.0
tp4622
aa(F1287.0
F190.0
tp4623
aa(lp4624
(I0
F0.0195
tp4625
a(lp4626
(I1
F0.0437
tp4627
a(F859.0
F73.0
tp4628
a(F1085.0
F184.0
tp4629
aa(lp4630
(I9
F0.0839
tp4631
a(F1096.0
F207.0
tp4632
a(F891.0
F315.0
tp4633
aaaaa(lp4634
(I10
F0.072
tp4635
a(lp4636
(I12
F0.0001
tp4637
a(lp4638
(I5
F0.1419
tp4639
a(lp4640
(I11
F0.113
tp4641
a(F972.0
F112.0
tp4642
a(F886.0
F145.0
tp4643
aa(lp4644
(I15
F0.076
tp4645
a(F787.0
F118.0
tp4646
a(F859.0
F271.0
tp4647
aaa(F840.0
F367.0
tp4648
aa(lp4649
(I7
F0.1765
tp4650
a(lp4651
(I9
F0.1413
tp4652
a(lp4653
(I7
F0.1126
tp4654
a(lp4655
(I5
F0.1052
tp4656
a(F1016.0
F261.0
tp4657
a(F780.0
F334.0
tp4658
aa(F796.0
F521.0
tp4659
aa(lp4660
(I13
F0.1507
tp4661
a(F628.0
F434.0
tp4662
a(F459.0
F663.0
tp4663
aaa(lp4664
(I1
F0.2218
tp4665
a(F302.0
F601.0
tp4666
a(F106.0
F700.0
tp4667
aaaaa(lp4668
(I13
F0.1702
tp4669
a(F494.0
F264.0
tp4670
a(F147.0
F1005.0
tp4671
aaa(lp4672
(I3
F0.122
tp4673
a(lp4674
(I5
F0.0793
tp4675
a(lp4676
(I9
F0.0559
tp4677
a(lp4678
(I7
F0.0112
tp4679
a(lp4680
(I11
F0.0334
tp4681
a(lp4682
(I5
F0.0085
tp4683
a(lp4684
(I0
F0.1981
tp4685
a(F1513.0
F15.0
tp4686
a(lp4687
(I12
F0.6235
tp4688
a(F1117.0
F0.0
tp4689
a(F1043.0
F3.0
tp4690
aaa(F1240.0
F31.0
tp4691
aa(F1039.0
F51.0
tp4692
aa(lp4693
(I13
F0.0536
tp4694
a(lp4695
(I0
F1.4413
tp4696
a(lp4697
(I9
F0.0182
tp4698
a(lp4699
(I1
F0.0247
tp4700
a(lp4701
(I7
F0.0449
tp4702
a(F1430.0
F43.0
tp4703
a(F1132.0
F18.0
tp4704
aa(F892.0
F49.0
tp4705
aa(lp4706
(I5
F0.0352
tp4707
a(F1330.0
F95.0
tp4708
a(F1300.0
F64.0
tp4709
aaa(F772.0
F58.0
tp4710
aa(F952.0
F114.0
tp4711
aaa(lp4712
(I8
F0.0636
tp4713
a(lp4714
(I3
F0.0385
tp4715
a(F789.0
F53.0
tp4716
a(F1104.0
F110.0
tp4717
aa(lp4718
(I11
F0.114
tp4719
a(lp4720
(I13
F0.0724
tp4721
a(F1379.0
F134.0
tp4722
a(F802.0
F208.0
tp4723
aa(F602.0
F215.0
tp4724
aaaa(lp4725
(I10
F0.1332
tp4726
a(lp4727
(I14
F0.0061
tp4728
a(lp4729
(I3
F0.0906
tp4730
a(F794.0
F76.0
tp4731
a(F745.0
F108.0
tp4732
aa(F624.0
F185.0
tp4733
aa(lp4734
(I13
F0.1333
tp4735
a(lp4736
(I15
F0.0943
tp4737
a(lp4738
(I11
F0.0917
tp4739
a(F981.0
F196.0
tp4740
a(F602.0
F195.0
tp4741
aa(F600.0
F336.0
tp4742
aa(F396.0
F410.0
tp4743
aaaa(lp4744
(I4
F0.4442
tp4745
a(lp4746
(I8
F0.0319
tp4747
a(lp4748
(I15
F0.0719
tp4749
a(lp4750
(I15
F0.031
tp4751
a(F695.0
F99.0
tp4752
a(F716.0
F123.0
tp4753
aa(lp4754
(I5
F0.1584
tp4755
a(F713.0
F169.0
tp4756
a(F742.0
F249.0
tp4757
aaa(lp4758
(I9
F0.1617
tp4759
a(F953.0
F403.0
tp4760
a(F401.0
F486.0
tp4761
aaa(lp4762
(I9
F0.1767
tp4763
a(lp4764
(I9
F0.1321
tp4765
a(F818.0
F562.0
tp4766
a(F441.0
F591.0
tp4767
aa(lp4768
(I13
F0.2523
tp4769
a(F281.0
F790.0
tp4770
a(F100.0
F1183.0
tp4771
aaaaa(lp4772
(I1
F0.1218
tp4773
a(lp4774
(I7
F0.0737
tp4775
a(lp4776
(I11
F0.0709
tp4777
a(lp4778
(I9
F0.0585
tp4779
a(lp4780
(I11
F0.0149
tp4781
a(lp4782
(I12
F1.0809
tp4783
a(lp4784
(I7
F0.0272
tp4785
a(lp4786
(I3
F0.0078
tp4787
a(lp4788
(I15
F-0.0026
tp4789
a(F1484.0
F7.0
tp4790
a(lp4791
(I2
F0.1125
tp4792
a(F955.0
F6.0
tp4793
a(F757.0
F13.0
tp4794
aaa(F1191.0
F30.0
tp4795
aa(F1459.0
F65.0
tp4796
aa(lp4797
(I15
F0.0148
tp4798
a(F918.0
F19.0
tp4799
a(F740.0
F53.0
tp4800
aaa(lp4801
(I15
F0.0636
tp4802
a(lp4803
(I5
F0.0532
tp4804
a(lp4805
(I10
F0.5721
tp4806
a(F1272.0
F63.0
tp4807
a(lp4808
(I4
F0.7093
tp4809
a(F824.0
F13.0
tp4810
a(F935.0
F39.0
tp4811
aaa(F738.0
F73.0
tp4812
aa(F754.0
F73.0
tp4813
aaa(F1353.0
F176.0
tp4814
aa(lp4815
(I8
F0.0633
tp4816
a(lp4817
(I15
F0.0253
tp4818
a(F882.0
F53.0
tp4819
a(F1097.0
F143.0
tp4820
aa(lp4821
(I1
F0.0806
tp4822
a(lp4823
(I11
F0.1037
tp4824
a(F779.0
F91.0
tp4825
a(F675.0
F176.0
tp4826
aa(F625.0
F185.0
tp4827
aaaa(lp4828
(I10
F0.0478
tp4829
a(lp4830
(I14
F0.0095
tp4831
a(lp4832
(I5
F0.0823
tp4833
a(F1125.0
F42.0
tp4834
a(F899.0
F79.0
tp4835
aa(F844.0
F179.0
tp4836
aa(lp4837
(I9
F0.0913
tp4838
a(lp4839
(I13
F0.0751
tp4840
a(F1140.0
F162.0
tp4841
a(F691.0
F253.0
tp4842
aa(lp4843
(I12
F0.9249
tp4844
a(F644.0
F261.0
tp4845
a(F485.0
F373.0
tp4846
aaaaa(lp4847
(I8
F0.3539
tp4848
a(lp4849
(I12
F0.0131
tp4850
a(lp4851
(I6
F0.0026
tp4852
a(lp4853
(I5
F0.1605
tp4854
a(F1200.0
F260.0
tp4855
a(F1028.0
F169.0
tp4856
aa(F579.0
F264.0
tp4857
aa(lp4858
(I9
F0.1419
tp4859
a(F675.0
F247.0
tp4860
a(F399.0
F392.0
tp4861
aaa(lp4862
(I7
F0.1898
tp4863
a(lp4864
(I4
F1.2118
tp4865
a(lp4866
(I7
F0.1234
tp4867
a(F678.0
F440.0
tp4868
a(F381.0
F528.0
tp4869
aa(F544.0
F856.0
tp4870
aa(lp4871
(I9
F0.2676
tp4872
a(F203.0
F775.0
tp4873
a(F81.0
F868.0
tp4874
aaaaa(lp4875
(I1
F0.1277
tp4876
a(lp4877
(I5
F0.0847
tp4878
a(lp4879
(I13
F0.0433
tp4880
a(lp4881
(I3
F0.033
tp4882
a(lp4883
(I7
F0.013
tp4884
a(lp4885
(I11
F0.0279
tp4886
a(lp4887
(I5
F0.0057
tp4888
a(lp4889
(I5
F-0.0095
tp4890
a(lp4891
(I3
F-0.0188
tp4892
a(F1472.0
F7.0
tp4893
a(F780.0
F12.0
tp4894
aa(F980.0
F0.0
tp4895
aa(F1015.0
F20.0
tp4896
aa(F907.0
F37.0
tp4897
aa(lp4898
(I11
F0.0216
tp4899
a(lp4900
(I15
F0.0469
tp4901
a(lp4902
(I9
F-0.0003
tp4903
a(F1052.0
F11.0
tp4904
a(F875.0
F18.0
tp4905
aa(F1096.0
F56.0
tp4906
aa(F1125.0
F85.0
tp4907
aaa(lp4908
(I11
F0.0715
tp4909
a(lp4910
(I14
F0.1388
tp4911
a(F1115.0
F48.0
tp4912
a(F1292.0
F117.0
tp4913
aa(F765.0
F96.0
tp4914
aaa(lp4915
(I12
F1.793
tp4916
a(lp4917
(I10
F0.0294
tp4918
a(lp4919
(I1
F0.0431
tp4920
a(F1195.0
F55.0
tp4921
a(F1132.0
F140.0
tp4922
aa(lp4923
(I5
F0.0587
tp4924
a(lp4925
(I9
F0.0771
tp4926
a(lp4927
(I15
F0.0516
tp4928
a(F811.0
F64.0
tp4929
a(F707.0
F96.0
tp4930
aa(F662.0
F141.0
tp4931
aa(lp4932
(I11
F0.0787
tp4933
a(F871.0
F135.0
tp4934
a(F660.0
F155.0
tp4935
aaaa(F628.0
F188.0
tp4936
aaa(lp4937
(I0
F0.0188
tp4938
a(lp4939
(I3
F0.1093
tp4940
a(F1210.0
F213.0
tp4941
a(F611.0
F168.0
tp4942
aa(lp4943
(I6
F0.2067
tp4944
a(F979.0
F298.0
tp4945
a(lp4946
(I15
F0.0945
tp4947
a(F944.0
F325.0
tp4948
a(F626.0
F501.0
tp4949
aaaaa(lp4950
(I8
F0.3561
tp4951
a(lp4952
(I6
F0.0026
tp4953
a(lp4954
(I15
F0.0681
tp4955
a(F1310.0
F257.0
tp4956
a(F1186.0
F322.0
tp4957
aa(lp4958
(I5
F0.1632
tp4959
a(F701.0
F281.0
tp4960
a(F410.0
F402.0
tp4961
aaa(lp4962
(I5
F0.2098
tp4963
a(lp4964
(I13
F0.127
tp4965
a(F737.0
F428.0
tp4966
a(lp4967
(I12
F1.5
tp4968
a(F516.0
F559.0
tp4969
a(F288.0
F545.0
tp4970
aaa(lp4971
(I13
F0.2641
tp4972
a(F163.0
F649.0
tp4973
a(F66.0
F1144.0
tp4974
aaaaa(lp4975
(I3
F0.1221
tp4976
a(lp4977
(I13
F0.0547
tp4978
a(lp4979
(I11
F0.0958
tp4980
a(lp4981
(I9
F0.0183
tp4982
a(lp4983
(I13
F0.0227
tp4984
a(lp4985
(I3
F0.0329
tp4986
a(lp4987
(I7
F0.0108
tp4988
a(lp4989
(I0
F0.1983
tp4990
a(F1436.0
F15.0
tp4991
a(lp4992
(I5
F-0.0196
tp4993
a(F825.0
F0.0
tp4994
a(F1418.0
F6.0
tp4995
aaa(lp4996
(I3
F-0.0211
tp4997
a(F889.0
F15.0
tp4998
a(lp4999
(I6
F0.6358
tp5000
a(F733.0
F27.0
tp5001
a(F849.0
F20.0
tp5002
aaaa(F893.0
F60.0
tp5003
aa(F1152.0
F51.0
tp5004
aa(lp5005
(I15
F0.0506
tp5006
a(lp5007
(I5
F0.0282
tp5008
a(lp5009
(I13
F0.0234
tp5010
a(F870.0
F19.0
tp5011
a(F833.0
F36.0
tp5012
aa(lp5013
(I6
F0.7216
tp5014
a(F1139.0
F88.0
tp5015
a(F820.0
F29.0
tp5016
aaa(lp5017
(I4
F0.273
tp5018
a(F805.0
F63.0
tp5019
a(F677.0
F101.0
tp5020
aaaa(F1103.0
F168.0
tp5021
aa(lp5022
(I6
F0.2224
tp5023
a(lp5024
(I4
F0.0372
tp5025
a(lp5026
(I5
F0.0378
tp5027
a(F1010.0
F79.0
tp5028
a(lp5029
(I13
F0.0913
tp5030
a(F714.0
F123.0
tp5031
a(lp5032
(I3
F0.0811
tp5033
a(F745.0
F63.0
tp5034
a(F835.0
F132.0
tp5035
aaaa(lp5036
(I1
F0.0666
tp5037
a(F879.0
F126.0
tp5038
a(F772.0
F273.0
tp5039
aaa(lp5040
(I7
F0.1126
tp5041
a(lp5042
(I15
F0.0804
tp5043
a(lp5044
(I13
F0.0801
tp5045
a(F1217.0
F164.0
tp5046
a(F641.0
F170.0
tp5047
aa(F982.0
F380.0
tp5048
aa(F657.0
F584.0
tp5049
aaaa(lp5050
(I14
F0.6625
tp5051
a(lp5052
(I0
F0.1245
tp5053
a(lp5054
(I10
F0.0768
tp5055
a(lp5056
(I11
F0.1046
tp5057
a(F713.0
F94.0
tp5058
a(lp5059
(I11
F0.1789
tp5060
a(F838.0
F222.0
tp5061
a(F724.0
F136.0
tp5062
aaa(F502.0
F260.0
tp5063
aa(lp5064
(I13
F0.1952
tp5065
a(lp5066
(I13
F0.0951
tp5067
a(F979.0
F327.0
tp5068
a(F812.0
F660.0
tp5069
aa(F221.0
F576.0
tp5070
aaa(lp5071
(I1
F0.2086
tp5072
a(lp5073
(I7
F0.1387
tp5074
a(F556.0
F361.0
tp5075
a(F439.0
F804.0
tp5076
aa(F188.0
F1362.0
tp5077
aaaa(lp5078
(I3
F0.1133
tp5079
a(lp5080
(I9
F0.062
tp5081
a(lp5082
(I5
F0.0565
tp5083
a(lp5084
(I9
F0.0173
tp5085
a(lp5086
(I15
F0.0374
tp5087
a(lp5088
(I8
F0.7617
tp5089
a(lp5090
(I4
F0.1488
tp5091
a(lp5092
(I7
F0.0041
tp5093
a(F991.0
F7.0
tp5094
a(F791.0
F16.0
tp5095
aa(lp5096
(I15
F-0.0139
tp5097
a(F800.0
F4.0
tp5098
a(F1436.0
F51.0
tp5099
aaa(lp5100
(I10
F1.0226
tp5101
a(F774.0
F8.0
tp5102
a(F1076.0
F3.0
tp5103
aaa(lp5104
(I12
F0.276
tp5105
a(F1406.0
F47.0
tp5106
a(F758.0
F68.0
tp5107
aaa(lp5108
(I7
F0.0607
tp5109
a(lp5110
(I5
F0.0121
tp5111
a(F1264.0
F41.0
tp5112
a(lp5113
(I9
F0.0404
tp5114
a(lp5115
(I4
F0.5403
tp5116
a(F781.0
F54.0
tp5117
a(F905.0
F30.0
tp5118
aa(F1124.0
F91.0
tp5119
aaa(F729.0
F85.0
tp5120
aaa(lp5121
(I5
F0.0913
tp5122
a(lp5123
(I10
F0.4474
tp5124
a(F976.0
F75.0
tp5125
a(F814.0
F136.0
tp5126
aa(F818.0
F186.0
tp5127
aaa(lp5128
(I0
F0.0212
tp5129
a(lp5130
(I8
F0.0024
tp5131
a(lp5132
(I11
F0.097
tp5133
a(F927.0
F57.0
tp5134
a(F1196.0
F130.0
tp5135
aa(F992.0
F246.0
tp5136
aa(lp5137
(I7
F0.1163
tp5138
a(lp5139
(I13
F0.1056
tp5140
a(lp5141
(I15
F0.0779
tp5142
a(lp5143
(I9
F0.0885
tp5144
a(F1156.0
F136.0
tp5145
a(F686.0
F158.0
tp5146
aa(F614.0
F203.0
tp5147
aa(F791.0
F319.0
tp5148
aa(F509.0
F381.0
tp5149
aaaa(lp5150
(I6
F0.582
tp5151
a(lp5152
(I8
F0.1927
tp5153
a(lp5154
(I11
F0.1361
tp5155
a(lp5156
(I9
F0.1092
tp5157
a(F1298.0
F199.0
tp5158
a(F661.0
F164.0
tp5159
aa(lp5160
(I9
F0.1575
tp5161
a(F554.0
F240.0
tp5162
a(F1103.0
F382.0
tp5163
aaa(lp5164
(I5
F0.1794
tp5165
a(lp5166
(I9
F0.1501
tp5167
a(F833.0
F333.0
tp5168
a(F414.0
F389.0
tp5169
aa(F260.0
F546.0
tp5170
aaa(lp5171
(I7
F0.1692
tp5172
a(lp5173
(I9
F0.1446
tp5174
a(F737.0
F451.0
tp5175
a(F353.0
F463.0
tp5176
aa(lp5177
(I13
F0.2168
tp5178
a(F278.0
F627.0
tp5179
a(F129.0
F1200.0
tp5180
aaaaa(lp5181
(I5
F0.134
tp5182
a(lp5183
(I3
F0.0705
tp5184
a(lp5185
(I11
F0.0514
tp5186
a(lp5187
(I5
F0.0605
tp5188
a(lp5189
(I13
F0.0267
tp5190
a(lp5191
(I15
F0.0408
tp5192
a(lp5193
(I5
F0.0023
tp5194
a(lp5195
(I2
F0.0004
tp5196
a(F944.0
F11.0
tp5197
a(lp5198
(I13
F-0.006
tp5199
a(lp5200
(I12
F0.3978
tp5201
a(F800.0
F4.0
tp5202
a(F831.0
F0.0
tp5203
aa(F902.0
F6.0
tp5204
aaa(lp5205
(I0
F0.3561
tp5206
a(F949.0
F36.0
tp5207
a(lp5208
(I15
F0.0089
tp5209
a(F894.0
F5.0
tp5210
a(F755.0
F19.0
tp5211
aaaa(lp5212
(I1
F-0.0185
tp5213
a(F789.0
F17.0
tp5214
a(F1117.0
F58.0
tp5215
aaa(lp5216
(I12
F0.184
tp5217
a(F1021.0
F37.0
tp5218
a(lp5219
(I3
F0.0249
tp5220
a(F1221.0
F74.0
tp5221
a(F1114.0
F117.0
tp5222
aaaa(F1201.0
F157.0
tp5223
aa(lp5224
(I7
F0.0908
tp5225
a(lp5226
(I8
F0.0061
tp5227
a(lp5228
(I3
F0.0286
tp5229
a(F803.0
F33.0
tp5230
a(F732.0
F71.0
tp5231
aa(lp5232
(I15
F0.068
tp5233
a(lp5234
(I2
F0.3106
tp5235
a(F728.0
F58.0
tp5236
a(F1046.0
F136.0
tp5237
aa(F687.0
F129.0
tp5238
aaa(F698.0
F165.0
tp5239
aaa(lp5240
(I12
F0.3385
tp5241
a(lp5242
(I11
F0.1727
tp5243
a(lp5244
(I14
F0.2308
tp5245
a(lp5246
(I2
F0.1908
tp5247
a(F1935.0
F224.0
tp5248
a(F1079.0
F188.0
tp5249
aa(F657.0
F155.0
tp5250
aa(F566.0
F236.0
tp5251
aa(lp5252
(I11
F0.1387
tp5253
a(lp5254
(I13
F0.0744
tp5255
a(F976.0
F180.0
tp5256
a(lp5257
(I15
F0.094
tp5258
a(F871.0
F292.0
tp5259
a(F597.0
F353.0
tp5260
aaa(F585.0
F395.0
tp5261
aaaa(lp5262
(I10
F0.3126
tp5263
a(lp5264
(I12
F0.0001
tp5265
a(lp5266
(I11
F0.1024
tp5267
a(F730.0
F117.0
tp5268
a(F1396.0
F348.0
tp5269
aa(F841.0
F678.0
tp5270
aa(lp5271
(I7
F0.2012
tp5272
a(lp5273
(I13
F0.1352
tp5274
a(F529.0
F412.0
tp5275
a(lp5276
(I3
F0.1829
tp5277
a(F484.0
F664.0
tp5278
a(F205.0
F562.0
tp5279
aaa(lp5280
(I5
F0.2782
tp5281
a(F148.0
F687.0
tp5282
a(F63.0
F942.0
tp5283
aaaaa(lp5284
(I8
F2.1744
tp5285
a(lp5286
(I13
F0.082
tp5287
a(lp5288
(I3
F0.0327
tp5289
a(lp5290
(I9
F0.0404
tp5291
a(lp5292
(I9
F0.0064
tp5293
a(lp5294
(I0
F0.5265
tp5295
a(lp5296
(I5
F0.0045
tp5297
a(lp5298
(I7
F0.013
tp5299
a(lp5300
(I7
F-0.0192
tp5301
a(F781.0
F6.0
tp5302
a(F830.0
F3.0
tp5303
aa(F939.0
F28.0
tp5304
aa(F1282.0
F60.0
tp5305
aa(lp5306
(I5
F-0.0128
tp5307
a(F900.0
F1.0
tp5308
a(F1300.0
F23.0
tp5309
aaa(lp5310
(I15
F0.0505
tp5311
a(lp5312
(I1
F0.0022
tp5313
a(F890.0
F36.0
tp5314
a(F1526.0
F32.0
tp5315
aa(F807.0
F60.0
tp5316
aaa(F1419.0
F141.0
tp5317
aa(lp5318
(I3
F0.1063
tp5319
a(lp5320
(I8
F0.4933
tp5321
a(lp5322
(I13
F0.0256
tp5323
a(F1203.0
F65.0
tp5324
a(lp5325
(I9
F0.062
tp5326
a(F1326.0
F139.0
tp5327
a(F737.0
F118.0
tp5328
aaa(lp5329
(I13
F0.0601
tp5330
a(lp5331
(I7
F0.052
tp5332
a(F1347.0
F116.0
tp5333
a(F701.0
F107.0
tp5334
aa(F836.0
F182.0
tp5335
aaa(lp5336
(I2
F0.5164
tp5337
a(F1309.0
F223.0
tp5338
a(F846.0
F250.0
tp5339
aaaa(lp5340
(I6
F0.3622
tp5341
a(lp5342
(I8
F0.0289
tp5343
a(lp5344
(I14
F0.0056
tp5345
a(lp5346
(I3
F0.1114
tp5347
a(lp5348
(I15
F0.1083
tp5349
a(F818.0
F94.0
tp5350
a(F834.0
F34.0
tp5351
aa(lp5352
(I3
F0.1607
tp5353
a(F846.0
F188.0
tp5354
a(F1060.0
F169.0
tp5355
aaa(F634.0
F254.0
tp5356
aa(lp5357
(I9
F0.1795
tp5358
a(lp5359
(I1
F0.1374
tp5360
a(lp5361
(I2
F0.2317
tp5362
a(F976.0
F185.0
tp5363
a(F561.0
F199.0
tp5364
aa(F528.0
F340.0
tp5365
aa(F322.0
F446.0
tp5366
aaa(lp5367
(I13
F0.1434
tp5368
a(lp5369
(I1
F0.1331
tp5370
a(lp5371
(I3
F0.0881
tp5372
a(F649.0
F254.0
tp5373
a(F725.0
F393.0
tp5374
aa(F436.0
F358.0
tp5375
aa(lp5376
(I3
F0.2132
tp5377
a(F577.0
F899.0
tp5378
a(F125.0
F685.0
tp5379
aaaaa(lp5380
(I5
F0.1234
tp5381
a(F611.0
F202.0
tp5382
a(F216.0
F1273.0
tp5383
aaa(lp5384
(I13
F0.1198
tp5385
a(lp5386
(I5
F0.0594
tp5387
a(lp5388
(I1
F0.0608
tp5389
a(lp5390
(I13
F0.044
tp5391
a(lp5392
(I11
F0.0617
tp5393
a(lp5394
(I1
F0.009
tp5395
a(lp5396
(I7
F0.0285
tp5397
a(lp5398
(I13
F0.0149
tp5399
a(lp5400
(I10
F0.0001
tp5401
a(F1191.0
F16.0
tp5402
a(lp5403
(I6
F0.0003
tp5404
a(F815.0
F9.0
tp5405
a(lp5406
(I6
F0.9106
tp5407
a(F974.0
F0.0
tp5408
a(F775.0
F3.0
tp5409
aaaa(F849.0
F23.0
tp5410
aa(F1482.0
F48.0
tp5411
aa(lp5412
(I14
F1.1636
tp5413
a(lp5414
(I10
F0.0052
tp5415
a(F901.0
F49.0
tp5416
a(lp5417
(I7
F0.0251
tp5418
a(F1024.0
F12.0
tp5419
a(F874.0
F28.0
tp5420
aaa(F1089.0
F65.0
tp5421
aaa(F1059.0
F78.0
tp5422
aa(lp5423
(I7
F0.0274
tp5424
a(F980.0
F57.0
tp5425
a(lp5426
(I2
F0.2358
tp5427
a(F919.0
F85.0
tp5428
a(F867.0
F146.0
tp5429
aaaa(lp5430
(I8
F0.1775
tp5431
a(F904.0
F85.0
tp5432
a(F863.0
F195.0
tp5433
aaa(lp5434
(I6
F0.3077
tp5435
a(lp5436
(I9
F0.1213
tp5437
a(lp5438
(I2
F0.3065
tp5439
a(lp5440
(I11
F0.1071
tp5441
a(lp5442
(I1
F0.09
tp5443
a(F1003.0
F70.0
tp5444
a(F956.0
F143.0
tp5445
aa(F702.0
F146.0
tp5446
aa(F1169.0
F263.0
tp5447
aa(F648.0
F267.0
tp5448
aa(lp5449
(I7
F0.0965
tp5450
a(lp5451
(I13
F0.0827
tp5452
a(lp5453
(I13
F0.0592
tp5454
a(F755.0
F86.0
tp5455
a(F765.0
F150.0
tp5456
aa(F594.0
F233.0
tp5457
aa(lp5458
(I3
F0.1151
tp5459
a(F679.0
F299.0
tp5460
a(F510.0
F330.0
tp5461
aaaaa(lp5462
(I14
F0.6523
tp5463
a(lp5464
(I2
F0.676
tp5465
a(lp5466
(I4
F0.0314
tp5467
a(lp5468
(I3
F0.0902
tp5469
a(F978.0
F66.0
tp5470
a(lp5471
(I5
F0.1856
tp5472
a(F1207.0
F350.0
tp5473
a(F714.0
F132.0
tp5474
aaa(lp5475
(I1
F0.1359
tp5476
a(F599.0
F197.0
tp5477
a(F451.0
F362.0
tp5478
aaa(F517.0
F854.0
tp5479
aa(lp5480
(I7
F0.1636
tp5481
a(lp5482
(I1
F0.136
tp5483
a(F462.0
F364.0
tp5484
a(F321.0
F457.0
tp5485
aa(lp5486
(I7
F0.2461
tp5487
a(F243.0
F800.0
tp5488
a(F87.0
F1066.0
tp5489
aaaaa(lp5490
(I13
F0.1368
tp5491
a(lp5492
(I7
F0.0649
tp5493
a(lp5494
(I11
F0.0877
tp5495
a(lp5496
(I3
F0.0684
tp5497
a(lp5498
(I15
F0.0361
tp5499
a(lp5500
(I1
F0.0194
tp5501
a(lp5502
(I11
F-0.0466
tp5503
a(F1006.0
F32.0
tp5504
a(lp5505
(I7
F0.0188
tp5506
a(lp5507
(I13
F0.0151
tp5508
a(lp5509
(I1
F-0.0003
tp5510
a(lp5511
(I12
F0.2989
tp5512
a(F778.0
F5.0
tp5513
a(F1.107
F1.0
tp5514
aa(F775.0
F7.0
tp5515
aa(F875.0
F14.0
tp5516
aa(F891.0
F33.0
tp5517
aaa(lp5518
(I6
F0.5278
tp5519
a(lp5520
(I8
F0.345
tp5521
a(F860.0
F29.0
tp5522
a(F740.0
F63.0
tp5523
aa(F1207.0
F25.0
tp5524
aaa(lp5525
(I13
F0.0527
tp5526
a(lp5527
(I8
F0.326
tp5528
a(F1359.0
F43.0
tp5529
a(F1460.0
F97.0
tp5530
aa(F1021.0
F124.0
tp5531
aaa(lp5532
(I0
F0.4648
tp5533
a(F821.0
F73.0
tp5534
a(F847.0
F143.0
tp5535
aaa(lp5536
(I3
F0.144
tp5537
a(lp5538
(I4
F0.1008
tp5539
a(lp5540
(I3
F0.0552
tp5541
a(F751.0
F64.0
tp5542
a(F713.0
F119.0
tp5543
aa(F977.0
F225.0
tp5544
aa(F557.0
F246.0
tp5545
aaa(lp5546
(I5
F0.0891
tp5547
a(lp5548
(I2
F0.027
tp5549
a(lp5550
(I1
F0.053
tp5551
a(F1194.0
F46.0
tp5552
a(F733.0
F96.0
tp5553
aa(lp5554
(I10
F0.2326
tp5555
a(F738.0
F78.0
tp5556
a(lp5557
(I10
F0.8866
tp5558
a(F613.0
F171.0
tp5559
a(F857.0
F146.0
tp5560
aaaa(lp5561
(I0
F0.1288
tp5562
a(lp5563
(I14
F0.0201
tp5564
a(F1214.0
F197.0
tp5565
a(F636.0
F277.0
tp5566
aa(lp5567
(I13
F0.0956
tp5568
a(F907.0
F363.0
tp5569
a(lp5570
(I3
F0.1255
tp5571
a(F613.0
F307.0
tp5572
a(F498.0
F382.0
tp5573
aaaaaa(lp5574
(I10
F0.137
tp5575
a(lp5576
(I0
F0.0011
tp5577
a(lp5578
(I3
F0.114
tp5579
a(F817.0
F70.0
tp5580
a(F1137.0
F283.0
tp5581
aa(F554.0
F362.0
tp5582
aa(lp5583
(I3
F0.1809
tp5584
a(lp5585
(I15
F0.143
tp5586
a(F800.0
F569.0
tp5587
a(F358.0
F671.0
tp5588
aa(lp5589
(I1
F0.2387
tp5590
a(F324.0
F753.0
tp5591
a(lp5592
(I7
F0.3068
tp5593
a(F103.0
F702.0
tp5594
a(F48.0
F755.0
tp5595
aaaaaa(lp5596
(I9
F0.1074
tp5597
a(lp5598
(I1
F0.0552
tp5599
a(lp5600
(I9
F0.018
tp5601
a(lp5602
(I5
F0.0437
tp5603
a(lp5604
(I5
F0.0101
tp5605
a(lp5606
(I2
F-0.0901
tp5607
a(F793.0
F20.0
tp5608
a(lp5609
(I5
F-0.0025
tp5610
a(lp5611
(I3
F-0.0437
tp5612
a(F748.0
F10.0
tp5613
a(lp5614
(I10
F0.0258
tp5615
a(F863.0
F8.0
tp5616
a(lp5617
(I3
F-0.0135
tp5618
a(F893.0
F1.0
tp5619
a(F752.0
F3.0
tp5620
aaaa(F1085.0
F19.0
tp5621
aaa(lp5622
(I5
F0.0278
tp5623
a(F1468.0
F43.0
tp5624
a(F793.0
F35.0
tp5625
aaa(F783.0
F76.0
tp5626
aa(lp5627
(I7
F0.0927
tp5628
a(lp5629
(I5
F0.0565
tp5630
a(lp5631
(I14
F1.3752
tp5632
a(lp5633
(I5
F0.0226
tp5634
a(lp5635
(I8
F0.4496
tp5636
a(F907.0
F49.0
tp5637
a(F895.0
F25.0
tp5638
aa(lp5639
(I11
F0.0486
tp5640
a(F1170.0
F62.0
tp5641
a(F781.0
F72.0
tp5642
aaa(F1095.0
F104.0
tp5643
aa(F762.0
F100.0
tp5644
aa(F671.0
F143.0
tp5645
aaa(lp5646
(I13
F0.1119
tp5647
a(lp5648
(I13
F0.0716
tp5649
a(lp5650
(I5
F0.1258
tp5651
a(lp5652
(I7
F0.073
tp5653
a(lp5654
(I3
F0.0731
tp5655
a(F1228.0
F90.0
tp5656
a(F1249.0
F168.0
tp5657
aa(F1013.0
F179.0
tp5658
aa(F641.0
F167.0
tp5659
aa(lp5660
(I6
F0.3813
tp5661
a(lp5662
(I5
F0.0981
tp5663
a(F696.0
F93.0
tp5664
a(F697.0
F136.0
tp5665
aa(F1082.0
F395.0
tp5666
aaa(F619.0
F340.0
tp5667
aaa(lp5668
(I12
F0.7731
tp5669
a(lp5670
(I14
F0.0518
tp5671
a(lp5672
(I2
F0.0249
tp5673
a(lp5674
(I11
F0.1312
tp5675
a(F1021.0
F107.0
tp5676
a(lp5677
(I13
F0.1478
tp5678
a(F667.0
F182.0
tp5679
a(F1195.0
F170.0
tp5680
aaa(F1029.0
F490.0
tp5681
aa(lp5682
(I5
F0.1588
tp5683
a(lp5684
(I7
F0.1017
tp5685
a(F735.0
F218.0
tp5686
a(F571.0
F366.0
tp5687
aa(F371.0
F648.0
tp5688
aaa(lp5689
(I5
F0.1729
tp5690
a(lp5691
(I7
F0.1298
tp5692
a(F889.0
F531.0
tp5693
a(F306.0
F489.0
tp5694
aa(lp5695
(I7
F0.2132
tp5696
a(F286.0
F763.0
tp5697
a(F108.0
F1296.0
tp5698
aaaaa(lp5699
(I5
F0.1336
tp5700
a(lp5701
(I3
F0.0778
tp5702
a(lp5703
(I13
F0.0546
tp5704
a(lp5705
(I15
F0.0418
tp5706
a(lp5707
(I11
F0.0603
tp5708
a(lp5709
(I3
F0.0162
tp5710
a(lp5711
(I7
F0.013
tp5712
a(lp5713
(I4
F0.1948
tp5714
a(F1244.0
F18.0
tp5715
a(lp5716
(I3
F-0.013
tp5717
a(F1226.0
F4.0
tp5718
a(F1166.0
F12.0
tp5719
aaa(lp5720
(I3
F-0.0064
tp5721
a(F766.0
F29.0
tp5722
a(F801.0
F13.0
tp5723
aaa(lp5724
(I4
F1.1453
tp5725
a(lp5726
(I7
F0.0268
tp5727
a(F1196.0
F42.0
tp5728
a(F1015.0
F63.0
tp5729
aa(F780.0
F23.0
tp5730
aaa(F1174.0
F106.0
tp5731
aa(lp5732
(I3
F0.0205
tp5733
a(lp5734
(I12
F0.2938
tp5735
a(F1460.0
F43.0
tp5736
a(F812.0
F42.0
tp5737
aa(lp5738
(I11
F0.0311
tp5739
a(F704.0
F87.0
tp5740
a(F983.0
F75.0
tp5741
aaaa(lp5742
(I10
F0.1484
tp5743
a(lp5744
(I7
F0.0291
tp5745
a(F780.0
F30.0
tp5746
a(F1498.0
F129.0
tp5747
aa(lp5748
(I15
F0.0812
tp5749
a(lp5750
(I7
F0.0565
tp5751
a(F1095.0
F129.0
tp5752
a(F763.0
F151.0
tp5753
aa(F752.0
F279.0
tp5754
aaaa(lp5755
(I8
F0.3445
tp5756
a(lp5757
(I12
F0.0052
tp5758
a(lp5759
(I0
F0.0314
tp5760
a(lp5761
(I11
F0.1017
tp5762
a(F725.0
F78.0
tp5763
a(F1028.0
F170.0
tp5764
aa(F769.0
F161.0
tp5765
aa(F1252.0
F330.0
tp5766
aa(lp5767
(I9
F0.1408
tp5768
a(lp5769
(I9
F0.0981
tp5770
a(lp5771
(I13
F0.0727
tp5772
a(F665.0
F142.0
tp5773
a(F614.0
F169.0
tp5774
aa(F1007.0
F442.0
tp5775
aa(F433.0
F375.0
tp5776
aaaa(lp5777
(I10
F0.2482
tp5778
a(lp5779
(I4
F0.0008
tp5780
a(lp5781
(I13
F0.1334
tp5782
a(F680.0
F112.0
tp5783
a(F1112.0
F268.0
tp5784
aa(lp5785
(I0
F0.2712
tp5786
a(F503.0
F259.0
tp5787
a(F456.0
F401.0
tp5788
aaa(lp5789
(I1
F0.2088
tp5790
a(lp5791
(I15
F0.1535
tp5792
a(lp5793
(I0
F0.608
tp5794
a(F463.0
F308.0
tp5795
a(F529.0
F594.0
tp5796
aa(F276.0
F670.0
tp5797
aa(lp5798
(I7
F0.2742
tp5799
a(F207.0
F841.0
tp5800
a(F70.0
F861.0
tp5801
aaaaa(lp5802
(I13
F0.1368
tp5803
a(lp5804
(I9
F0.0765
tp5805
a(lp5806
(I3
F0.0684
tp5807
a(lp5808
(I13
F0.0685
tp5809
a(lp5810
(I3
F0.0171
tp5811
a(lp5812
(I5
F0.0279
tp5813
a(lp5814
(I7
F0.013
tp5815
a(lp5816
(I9
F0.0149
tp5817
a(lp5818
(I3
F-0.0187
tp5819
a(lp5820
(I7
F-0.027
tp5821
a(F767.0
F3.0
tp5822
a(F1059.0
F0.0
tp5823
aa(lp5824
(I5
F-0.0017
tp5825
a(F1057.0
F7.0
tp5826
a(F800.0
F16.0
tp5827
aaa(F806.0
F17.0
tp5828
aa(lp5829
(I2
F0.4795
tp5830
a(lp5831
(I12
F0.1186
tp5832
a(F1087.0
F31.0
tp5833
a(F765.0
F33.0
tp5834
aa(F838.0
F16.0
tp5835
aaa(F1008.0
F59.0
tp5836
aa(lp5837
(I4
F1.5055
tp5838
a(lp5839
(I2
F0.8475
tp5840
a(lp5841
(I14
F0.5454
tp5842
a(lp5843
(I13
F0.0272
tp5844
a(F1034.0
F47.0
tp5845
a(F1023.0
F75.0
tp5846
aa(F1251.0
F105.0
tp5847
aa(F1416.0
F62.0
tp5848
aa(F700.0
F82.0
tp5849
aaa(F1138.0
F191.0
tp5850
aa(lp5851
(I7
F0.1041
tp5852
a(lp5853
(I10
F0.6173
tp5854
a(lp5855
(I1
F0.1093
tp5856
a(F944.0
F105.0
tp5857
a(F652.0
F108.0
tp5858
aa(F779.0
F162.0
tp5859
aa(F674.0
F230.0
tp5860
aaa(lp5861
(I3
F0.1135
tp5862
a(lp5863
(I8
F0.0019
tp5864
a(lp5865
(I11
F0.1099
tp5866
a(F763.0
F56.0
tp5867
a(F714.0
F89.0
tp5868
aa(lp5869
(I4
F0.3967
tp5870
a(F1204.0
F286.0
tp5871
a(lp5872
(I14
F0.7036
tp5873
a(F612.0
F192.0
tp5874
a(F727.0
F280.0
tp5875
aaaa(lp5876
(I12
F0.2706
tp5877
a(lp5878
(I8
F0.0319
tp5879
a(F1112.0
F280.0
tp5880
a(F593.0
F241.0
tp5881
aa(lp5882
(I5
F0.1291
tp5883
a(F632.0
F254.0
tp5884
a(F448.0
F407.0
tp5885
aaaaa(lp5886
(I12
F0.128
tp5887
a(lp5888
(I3
F0.1496
tp5889
a(F1349.0
F168.0
tp5890
a(F1115.0
F392.0
tp5891
aa(lp5892
(I1
F0.2011
tp5893
a(lp5894
(I1
F0.1278
tp5895
a(F695.0
F467.0
tp5896
a(lp5897
(I7
F0.1496
tp5898
a(F396.0
F452.0
tp5899
a(F336.0
F740.0
tp5900
aaa(lp5901
(I9
F0.2455
tp5902
a(F197.0
F669.0
tp5903
a(F114.0
F1333.0
tp5904
aaaaa(lp5905
(I5
F0.1329
tp5906
a(lp5907
(I5
F0.0605
tp5908
a(lp5909
(I1
F0.0481
tp5910
a(lp5911
(I13
F0.0576
tp5912
a(lp5913
(I9
F0.0535
tp5914
a(lp5915
(I1
F0.0253
tp5916
a(lp5917
(I5
F0.0197
tp5918
a(lp5919
(I2
F0.5272
tp5920
a(lp5921
(I3
F-0.0138
tp5922
a(lp5923
(I14
F0.0083
tp5924
a(F1123.0
F10.0
tp5925
a(F1224.0
F24.0
tp5926
aa(lp5927
(I1
F0.0005
tp5928
a(F904.0
F40.0
tp5929
a(F996.0
F21.0
tp5930
aaa(lp5931
(I11
F-0.0119
tp5932
a(F1287.0
F6.0
tp5933
a(F1268.0
F20.0
tp5934
aaa(lp5935
(I0
F0.3414
tp5936
a(F774.0
F39.0
tp5937
a(F789.0
F22.0
tp5938
aaa(lp5939
(I12
F0.72
tp5940
a(F1329.0
F88.0
tp5941
a(F1027.0
F41.0
tp5942
aaa(F703.0
F75.0
tp5943
aa(lp5944
(I6
F0.0136
tp5945
a(F1182.0
F99.0
tp5946
a(F689.0
F123.0
tp5947
aaa(lp5948
(I9
F0.0827
tp5949
a(lp5950
(I4
F0.1137
tp5951
a(F897.0
F99.0
tp5952
a(F1319.0
F99.0
tp5953
aa(F971.0
F230.0
tp5954
aaa(lp5955
(I8
F0.0486
tp5956
a(lp5957
(I3
F0.0941
tp5958
a(lp5959
(I15
F0.0814
tp5960
a(F860.0
F68.0
tp5961
a(F705.0
F87.0
tp5962
aa(lp5963
(I7
F0.0946
tp5964
a(F708.0
F183.0
tp5965
a(F822.0
F148.0
tp5966
aaa(lp5967
(I7
F0.1012
tp5968
a(lp5969
(I11
F0.1391
tp5970
a(lp5971
(I8
F0.5659
tp5972
a(F1038.0
F125.0
tp5973
a(lp5974
(I9
F0.0767
tp5975
a(F1172.0
F189.0
tp5976
a(F874.0
F297.0
tp5977
aaa(F558.0
F301.0
tp5978
aa(lp5979
(I5
F0.112
tp5980
a(F750.0
F313.0
tp5981
a(F515.0
F354.0
tp5982
aaaaa(lp5983
(I6
F0.3455
tp5984
a(lp5985
(I12
F0.1373
tp5986
a(lp5987
(I9
F0.1068
tp5988
a(F793.0
F110.0
tp5989
a(lp5990
(I13
F0.1609
tp5991
a(F639.0
F220.0
tp5992
a(F976.0
F254.0
tp5993
aaa(lp5994
(I1
F0.1657
tp5995
a(F506.0
F319.0
tp5996
a(F303.0
F464.0
tp5997
aaa(lp5998
(I7
F0.2055
tp5999
a(lp6000
(I0
F1.3788
tp6001
a(lp6002
(I12
F0.7382
tp6003
a(F437.0
F351.0
tp6004
a(F343.0
F480.0
tp6005
aa(F262.0
F589.0
tp6006
aa(lp6007
(I9
F0.256
tp6008
a(F179.0
F637.0
tp6009
a(F59.0
F954.0
tp6010
aaaaa(lp6011
(I11
F0.1333
tp6012
a(lp6013
(I3
F0.0724
tp6014
a(lp6015
(I1
F0.0609
tp6016
a(lp6017
(I5
F0.0769
tp6018
a(lp6019
(I13
F0.0553
tp6020
a(lp6021
(I3
F0.0252
tp6022
a(lp6023
(I9
F0.0046
tp6024
a(lp6025
(I10
F-0.091
tp6026
a(F799.0
F26.0
tp6027
a(lp6028
(I0
F0.1219
tp6029
a(lp6030
(I14
F0.0083
tp6031
a(F891.0
F12.0
tp6032
a(F885.0
F20.0
tp6033
aa(lp6034
(I5
F-0.0019
tp6035
a(F1520.0
F3.0
tp6036
a(F1073.0
F17.0
tp6037
aaaa(lp6038
(I7
F0.0365
tp6039
a(lp6040
(I15
F0.0268
tp6041
a(lp6042
(I2
F0.4406
tp6043
a(F770.0
F20.0
tp6044
a(F829.0
F16.0
tp6045
aa(F987.0
F42.0
tp6046
aa(F804.0
F49.0
tp6047
aaa(lp6048
(I15
F0.0507
tp6049
a(lp6050
(I1
F0.0438
tp6051
a(F1495.0
F72.0
tp6052
a(F790.0
F19.0
tp6053
aa(F834.0
F80.0
tp6054
aaa(lp6055
(I6
F0.015
tp6056
a(F1138.0
F82.0
tp6057
a(F1180.0
F187.0
tp6058
aaa(F745.0
F186.0
tp6059
aa(lp6060
(I15
F0.0751
tp6061
a(F1244.0
F145.0
tp6062
a(F644.0
F185.0
tp6063
aaa(lp6064
(I0
F0.4391
tp6065
a(lp6066
(I5
F0.0966
tp6067
a(lp6068
(I13
F0.0739
tp6069
a(F850.0
F76.0
tp6070
a(F667.0
F108.0
tp6071
aa(lp6072
(I10
F0.0575
tp6073
a(lp6074
(I15
F0.0626
tp6075
a(F698.0
F103.0
tp6076
a(F837.0
F193.0
tp6077
aa(F674.0
F310.0
tp6078
aaa(lp6079
(I9
F0.0897
tp6080
a(lp6081
(I4
F0.7043
tp6082
a(F649.0
F122.0
tp6083
a(F1087.0
F366.0
tp6084
aa(lp6085
(I1
F0.1254
tp6086
a(F685.0
F371.0
tp6087
a(F462.0
F442.0
tp6088
aaaaa(lp6089
(I0
F0.2426
tp6090
a(lp6091
(I12
F0.0136
tp6092
a(lp6093
(I5
F0.0568
tp6094
a(F759.0
F72.0
tp6095
a(lp6096
(I7
F0.1804
tp6097
a(F1248.0
F339.0
tp6098
a(F664.0
F138.0
tp6099
aaa(lp6100
(I1
F0.135
tp6101
a(F594.0
F223.0
tp6102
a(F361.0
F452.0
tp6103
aaa(lp6104
(I1
F0.1694
tp6105
a(lp6106
(I5
F0.128
tp6107
a(F778.0
F360.0
tp6108
a(F401.0
F510.0
tp6109
aa(lp6110
(I5
F0.2049
tp6111
a(F442.0
F650.0
tp6112
a(lp6113
(I13
F0.2714
tp6114
a(F165.0
F647.0
tp6115
a(F66.0
F1102.0
tp6116
aaaaaa(lp6117
(I13
F0.137
tp6118
a(lp6119
(I1
F0.0618
tp6120
a(lp6121
(I13
F0.0445
tp6122
a(lp6123
(I1
F0.0114
tp6124
a(lp6125
(I9
F0.0232
tp6126
a(lp6127
(I2
F0.7521
tp6128
a(lp6129
(I11
F-0.038
tp6130
a(F1346.0
F52.0
tp6131
a(lp6132
(I15
F0.0038
tp6133
a(F1198.0
F8.0
tp6134
a(lp6135
(I14
F0.5436
tp6136
a(F895.0
F21.0
tp6137
a(F886.0
F10.0
tp6138
aaaa(lp6139
(I5
F-0.0088
tp6140
a(F825.0
F3.0
tp6141
a(F780.0
F10.0
tp6142
aaa(F865.0
F63.0
tp6143
aa(lp6144
(I5
F0.0503
tp6145
a(lp6146
(I6
F0.7992
tp6147
a(lp6148
(I9
F0.0062
tp6149
a(F887.0
F27.0
tp6150
a(lp6151
(I11
F0.0305
tp6152
a(F900.0
F38.0
tp6153
a(F871.0
F78.0
tp6154
aaa(F1483.0
F50.0
tp6155
aa(F714.0
F70.0
tp6156
aaa(lp6157
(I6
F0.0054
tp6158
a(lp6159
(I8
F0.1022
tp6160
a(F1147.0
F68.0
tp6161
a(F719.0
F85.0
tp6162
aa(lp6163
(I7
F0.0575
tp6164
a(F1274.0
F133.0
tp6165
a(F952.0
F229.0
tp6166
aaaa(lp6167
(I5
F0.1093
tp6168
a(lp6169
(I13
F0.056
tp6170
a(lp6171
(I11
F0.098
tp6172
a(lp6173
(I2
F0.7117
tp6174
a(F979.0
F65.0
tp6175
a(F709.0
F88.0
tp6176
aa(F664.0
F159.0
tp6177
aa(lp6178
(I15
F0.0809
tp6179
a(lp6180
(I11
F0.1222
tp6181
a(lp6182
(I3
F0.0839
tp6183
a(F790.0
F121.0
tp6184
a(F774.0
F178.0
tp6185
aa(F633.0
F206.0
tp6186
aa(lp6187
(I14
F0.8715
tp6188
a(F753.0
F181.0
tp6189
a(F544.0
F254.0
tp6190
aaaa(lp6191
(I4
F0.3946
tp6192
a(lp6193
(I11
F0.1235
tp6194
a(F1321.0
F244.0
tp6195
a(F558.0
F211.0
tp6196
aa(lp6197
(I2
F1.153
tp6198
a(F800.0
F426.0
tp6199
a(F480.0
F409.0
tp6200
aaaaa(lp6201
(I4
F0.0853
tp6202
a(lp6203
(I11
F0.1597
tp6204
a(F1261.0
F243.0
tp6205
a(lp6206
(I1
F0.1739
tp6207
a(F600.0
F198.0
tp6208
a(F611.0
F234.0
tp6209
aaa(lp6210
(I7
F0.1896
tp6211
a(lp6212
(I1
F0.1496
tp6213
a(F754.0
F526.0
tp6214
a(lp6215
(I9
F0.1844
tp6216
a(F339.0
F482.0
tp6217
a(F200.0
F637.0
tp6218
aaa(lp6219
(I11
F0.2682
tp6220
a(F247.0
F957.0
tp6221
a(F61.0
F876.0
tp6222
aaaaa(lp6223
(I9
F0.1317
tp6224
a(lp6225
(I3
F0.0731
tp6226
a(lp6227
(I9
F0.055
tp6228
a(lp6229
(I13
F0.0531
tp6230
a(lp6231
(I9
F0.0052
tp6232
a(lp6233
(I3
F0.0243
tp6234
a(lp6235
(I5
F0.0192
tp6236
a(lp6237
(I4
F0.0714
tp6238
a(lp6239
(I15
F0.0391
tp6240
a(F1154.0
F13.0
tp6241
a(F767.0
F19.0
tp6242
aa(lp6243
(I8
F0.6329
tp6244
a(F1492.0
F16.0
tp6245
a(F1149.0
F4.0
tp6246
aaa(F858.0
F26.0
tp6247
aa(F850.0
F37.0
tp6248
aa(lp6249
(I7
F0.0361
tp6250
a(lp6251
(I5
F0.0306
tp6252
a(lp6253
(I0
F0.2875
tp6254
a(F1088.0
F45.0
tp6255
a(lp6256
(I12
F0.9511
tp6257
a(F801.0
F5.0
tp6258
a(F770.0
F18.0
tp6259
aaa(F953.0
F49.0
tp6260
aa(lp6261
(I4
F0.1801
tp6262
a(F858.0
F51.0
tp6263
a(F1293.0
F124.0
tp6264
aaaa(lp6265
(I5
F0.0494
tp6266
a(F760.0
F65.0
tp6267
a(F818.0
F135.0
tp6268
aaa(lp6269
(I14
F0.4221
tp6270
a(lp6271
(I4
F0.0217
tp6272
a(F1175.0
F74.0
tp6273
a(F843.0
F107.0
tp6274
aa(lp6275
(I5
F0.0598
tp6276
a(F857.0
F119.0
tp6277
a(F611.0
F206.0
tp6278
aaaa(lp6279
(I6
F0.3107
tp6280
a(lp6281
(I11
F0.124
tp6282
a(lp6283
(I5
F0.1298
tp6284
a(lp6285
(I8
F0.281
tp6286
a(lp6287
(I13
F0.0632
tp6288
a(F758.0
F51.0
tp6289
a(F903.0
F129.0
tp6290
aa(F704.0
F166.0
tp6291
aa(F904.0
F251.0
tp6292
aa(F893.0
F317.0
tp6293
aa(lp6294
(I15
F0.1022
tp6295
a(lp6296
(I3
F0.1139
tp6297
a(F1244.0
F291.0
tp6298
a(F674.0
F329.0
tp6299
aa(F564.0
F493.0
tp6300
aaaa(lp6301
(I4
F0.4879
tp6302
a(lp6303
(I14
F0.3726
tp6304
a(lp6305
(I8
F0.0596
tp6306
a(lp6307
(I15
F0.1085
tp6308
a(F1261.0
F213.0
tp6309
a(F1248.0
F149.0
tp6310
aa(F873.0
F532.0
tp6311
aa(F531.0
F617.0
tp6312
aa(lp6313
(I7
F0.1869
tp6314
a(lp6315
(I1
F0.1794
tp6316
a(F756.0
F698.0
tp6317
a(F239.0
F549.0
tp6318
aa(lp6319
(I9
F0.2599
tp6320
a(F165.0
F758.0
tp6321
a(F58.0
F932.0
tp6322
aaaaa(lp6323
(I5
F0.1344
tp6324
a(lp6325
(I9
F0.0646
tp6326
a(lp6327
(I13
F0.0584
tp6328
a(lp6329
(I11
F0.0142
tp6330
a(lp6331
(I7
F0.0258
tp6332
a(lp6333
(I9
F0.01
tp6334
a(lp6335
(I3
F0.0135
tp6336
a(lp6337
(I0
F0.1986
tp6338
a(F1489.0
F21.0
tp6339
a(lp6340
(I13
F-0.0129
tp6341
a(F1079.0
F0.0
tp6342
a(F1064.0
F6.0
tp6343
aaa(F764.0
F20.0
tp6344
aa(F927.0
F28.0
tp6345
aa(lp6346
(I5
F0.0163
tp6347
a(F1215.0
F33.0
tp6348
a(F1326.0
F115.0
tp6349
aaa(lp6350
(I2
F0.5066
tp6351
a(lp6352
(I1
F0.0341
tp6353
a(lp6354
(I11
F0.0443
tp6355
a(F1195.0
F28.0
tp6356
a(F884.0
F37.0
tp6357
aa(lp6358
(I7
F0.046
tp6359
a(F766.0
F51.0
tp6360
a(F713.0
F67.0
tp6361
aaa(lp6362
(I5
F0.0516
tp6363
a(lp6364
(I1
F0.0248
tp6365
a(F787.0
F23.0
tp6366
a(F1157.0
F77.0
tp6367
aa(F732.0
F123.0
tp6368
aaaa(lp6369
(I12
F0.3167
tp6370
a(F864.0
F91.0
tp6371
a(F1114.0
F225.0
tp6372
aaa(lp6373
(I12
F0.5847
tp6374
a(lp6375
(I3
F0.0705
tp6376
a(lp6377
(I13
F0.0915
tp6378
a(F972.0
F134.0
tp6379
a(F1102.0
F67.0
tp6380
aa(lp6381
(I12
F0.0248
tp6382
a(lp6383
(I7
F0.0474
tp6384
a(F633.0
F169.0
tp6385
a(lp6386
(I15
F0.0968
tp6387
a(F844.0
F186.0
tp6388
a(F797.0
F111.0
tp6389
aaa(lp6390
(I11
F0.1184
tp6391
a(F652.0
F131.0
tp6392
a(F681.0
F264.0
tp6393
aaaa(lp6394
(I15
F0.099
tp6395
a(lp6396
(I9
F0.1036
tp6397
a(lp6398
(I14
F0.9889
tp6399
a(F776.0
F184.0
tp6400
a(F724.0
F120.0
tp6401
aa(F680.0
F317.0
tp6402
aa(F740.0
F476.0
tp6403
aaaa(lp6404
(I12
F0.2702
tp6405
a(lp6406
(I1
F0.1397
tp6407
a(F797.0
F177.0
tp6408
a(lp6409
(I0
F0.0017
tp6410
a(lp6411
(I9
F0.1849
tp6412
a(F661.0
F200.0
tp6413
a(F656.0
F130.0
tp6414
aa(F580.0
F403.0
tp6415
aaa(lp6416
(I5
F0.239
tp6417
a(lp6418
(I12
F1.0361
tp6419
a(F756.0
F748.0
tp6420
a(lp6421
(I9
F0.1704
tp6422
a(F412.0
F621.0
tp6423
a(F220.0
F611.0
tp6424
aaa(lp6425
(I15
F0.2345
tp6426
a(F117.0
F672.0
tp6427
a(F54.0
F864.0
tp6428
aaaaa(lp6429
(I1
F0.1115
tp6430
a(lp6431
(I11
F0.057
tp6432
a(lp6433
(I4
F1.6764
tp6434
a(lp6435
(I13
F0.0627
tp6436
a(lp6437
(I5
F0.0519
tp6438
a(lp6439
(I7
F0.025
tp6440
a(lp6441
(I1
F-0.0083
tp6442
a(lp6443
(I7
F-0.028
tp6444
a(F957.0
F18.0
tp6445
a(lp6446
(I0
F0.0013
tp6447
a(F784.0
F9.0
tp6448
a(F1209.0
F2.0
tp6449
aaa(lp6450
(I15
F0.0166
tp6451
a(lp6452
(I6
F0.34
tp6453
a(F1307.0
F28.0
tp6454
a(F929.0
F5.0
tp6455
aa(F1303.0
F60.0
tp6456
aaa(lp6457
(I12
F0.3013
tp6458
a(lp6459
(I15
F0.0726
tp6460
a(F1198.0
F40.0
tp6461
a(F799.0
F15.0
tp6462
aa(lp6463
(I12
F0.8235
tp6464
a(F754.0
F62.0
tp6465
a(F1127.0
F49.0
tp6466
aaaa(lp6467
(I0
F0.3561
tp6468
a(F777.0
F60.0
tp6469
a(F700.0
F92.0
tp6470
aaa(lp6471
(I8
F0.196
tp6472
a(F875.0
F73.0
tp6473
a(F717.0
F182.0
tp6474
aaa(F1028.0
F132.0
tp6475
aa(lp6476
(I8
F0.0673
tp6477
a(lp6478
(I3
F0.0673
tp6479
a(lp6480
(I15
F0.038
tp6481
a(F795.0
F53.0
tp6482
a(F1071.0
F104.0
tp6483
aa(lp6484
(I13
F0.096
tp6485
a(F728.0
F103.0
tp6486
a(F678.0
F136.0
tp6487
aaa(lp6488
(I13
F0.1154
tp6489
a(lp6490
(I15
F0.0697
tp6491
a(lp6492
(I11
F0.1076
tp6493
a(lp6494
(I9
F0.0644
tp6495
a(F826.0
F67.0
tp6496
a(F938.0
F129.0
tp6497
aa(F620.0
F177.0
tp6498
aa(lp6499
(I15
F0.0938
tp6500
a(F671.0
F159.0
tp6501
a(F596.0
F202.0
tp6502
aaa(F822.0
F418.0
tp6503
aaaa(lp6504
(I4
F0.4442
tp6505
a(lp6506
(I10
F0.0018
tp6507
a(lp6508
(I11
F0.1046
tp6509
a(F1088.0
F162.0
tp6510
a(lp6511
(I15
F0.0748
tp6512
a(F664.0
F133.0
tp6513
a(F1169.0
F339.0
tp6514
aaa(lp6515
(I11
F0.1622
tp6516
a(lp6517
(I15
F0.0698
tp6518
a(F710.0
F167.0
tp6519
a(F543.0
F271.0
tp6520
aa(F553.0
F577.0
tp6521
aaa(lp6522
(I11
F0.2215
tp6523
a(lp6524
(I15
F0.1387
tp6525
a(lp6526
(I7
F0.1286
tp6527
a(lp6528
(I5
F0.1336
tp6529
a(F694.0
F276.0
tp6530
a(F478.0
F353.0
tp6531
aa(F352.0
F513.0
tp6532
aa(F337.0
F874.0
tp6533
aa(lp6534
(I1
F0.3188
tp6535
a(F172.0
F638.0
tp6536
a(F58.0
F755.0
tp6537
aaaaa(lp6538
(I5
F0.1222
tp6539
a(lp6540
(I3
F0.0721
tp6541
a(lp6542
(I11
F0.0467
tp6543
a(lp6544
(I5
F0.0384
tp6545
a(lp6546
(I15
F0.0493
tp6547
a(lp6548
(I4
F0.8345
tp6549
a(lp6550
(I9
F0.0131
tp6551
a(lp6552
(I7
F0.013
tp6553
a(lp6554
(I9
F-0.0299
tp6555
a(F781.0
F13.0
tp6556
a(F1538.0
F11.0
tp6557
aa(F1075.0
F30.0
tp6558
aa(F1359.0
F63.0
tp6559
aa(lp6560
(I15
F0.0088
tp6561
a(F1334.0
F5.0
tp6562
a(F1040.0
F17.0
tp6563
aaa(lp6564
(I3
F0.0109
tp6565
a(F1501.0
F51.0
tp6566
a(F755.0
F66.0
tp6567
aaa(lp6568
(I14
F0.2522
tp6569
a(F1441.0
F89.0
tp6570
a(F1308.0
F155.0
tp6571
aaa(lp6572
(I14
F1.4709
tp6573
a(lp6574
(I7
F0.0563
tp6575
a(lp6576
(I3
F0.0368
tp6577
a(lp6578
(I7
F0.0044
tp6579
a(F777.0
F31.0
tp6580
a(F967.0
F60.0
tp6581
aa(F1323.0
F117.0
tp6582
aa(lp6583
(I0
F0.0093
tp6584
a(F751.0
F90.0
tp6585
a(F640.0
F126.0
tp6586
aaa(F741.0
F172.0
tp6587
aaa(lp6588
(I8
F0.2077
tp6589
a(lp6590
(I14
F0.0002
tp6591
a(lp6592
(I1
F0.1175
tp6593
a(lp6594
(I11
F0.1101
tp6595
a(F781.0
F51.0
tp6596
a(F673.0
F91.0
tp6597
aa(F859.0
F185.0
tp6598
aa(F863.0
F236.0
tp6599
aa(lp6600
(I11
F0.1503
tp6601
a(lp6602
(I9
F0.0911
tp6603
a(lp6604
(I7
F0.068
tp6605
a(F705.0
F107.0
tp6606
a(F786.0
F182.0
tp6607
aa(lp6608
(I10
F0.9861
tp6609
a(F660.0
F257.0
tp6610
a(F523.0
F303.0
tp6611
aaa(F459.0
F325.0
tp6612
aaaa(lp6613
(I6
F0.35
tp6614
a(lp6615
(I12
F0.0771
tp6616
a(lp6617
(I13
F0.0933
tp6618
a(F714.0
F101.0
tp6619
a(lp6620
(I3
F0.1493
tp6621
a(F668.0
F129.0
tp6622
a(F1199.0
F363.0
tp6623
aaa(lp6624
(I9
F0.1669
tp6625
a(F837.0
F447.0
tp6626
a(F302.0
F498.0
tp6627
aaa(lp6628
(I1
F0.2028
tp6629
a(lp6630
(I9
F0.1311
tp6631
a(F633.0
F491.0
tp6632
a(F581.0
F975.0
tp6633
aa(lp6634
(I15
F0.2305
tp6635
a(F238.0
F805.0
tp6636
a(F70.0
F936.0
tp6637
aaaaa(lp6638
(I1
F0.1325
tp6639
a(lp6640
(I13
F0.0727
tp6641
a(lp6642
(I1
F0.0282
tp6643
a(lp6644
(I11
F0.056
tp6645
a(lp6646
(I11
F-0.0078
tp6647
a(lp6648
(I13
F-0.0042
tp6649
a(lp6650
(I7
F0.0129
tp6651
a(lp6652
(I14
F0.0018
tp6653
a(F908.0
F10.0
tp6654
a(F1.122
F1.0
tp6655
aa(F901.0
F24.0
tp6656
aa(lp6657
(I7
F0.0236
tp6658
a(F957.0
F19.0
tp6659
a(F740.0
F28.0
tp6660
aaa(lp6661
(I15
F0.0658
tp6662
a(lp6663
(I5
F0.0209
tp6664
a(lp6665
(I13
F0.0108
tp6666
a(F1326.0
F19.0
tp6667
a(F1233.0
F43.0
tp6668
aa(F1000.0
F58.0
tp6669
aa(F746.0
F61.0
tp6670
aaa(F1031.0
F93.0
tp6671
aa(lp6672
(I11
F0.1144
tp6673
a(lp6674
(I15
F0.0623
tp6675
a(lp6676
(I5
F0.0813
tp6677
a(lp6678
(I11
F0.0468
tp6679
a(lp6680
(I14
F0.0369
tp6681
a(F1009.0
F54.0
tp6682
a(F1509.0
F49.0
tp6683
aa(lp6684
(I12
F0.5542
tp6685
a(F725.0
F95.0
tp6686
a(F782.0
F64.0
tp6687
aaa(F711.0
F97.0
tp6688
aa(lp6689
(I12
F0.309
tp6690
a(F770.0
F95.0
tp6691
a(F815.0
F150.0
tp6692
aaa(F790.0
F218.0
tp6693
aaa(lp6694
(I8
F0.0269
tp6695
a(lp6696
(I15
F0.1073
tp6697
a(lp6698
(I3
F0.0847
tp6699
a(F855.0
F92.0
tp6700
a(F675.0
F172.0
tp6701
aa(F1342.0
F150.0
tp6702
aa(lp6703
(I15
F0.1118
tp6704
a(lp6705
(I7
F0.1035
tp6706
a(lp6707
(I15
F0.0808
tp6708
a(lp6709
(I8
F0.5467
tp6710
a(F718.0
F123.0
tp6711
a(F1108.0
F308.0
tp6712
aa(F565.0
F207.0
tp6713
aa(F554.0
F295.0
tp6714
aa(lp6715
(I14
F1.0475
tp6716
a(F540.0
F258.0
tp6717
a(F375.0
F400.0
tp6718
aaaaa(lp6719
(I10
F0.35
tp6720
a(lp6721
(I14
F0.3342
tp6722
a(lp6723
(I12
F0.0475
tp6724
a(lp6725
(I15
F0.0745
tp6726
a(F1171.0
F215.0
tp6727
a(F1058.0
F270.0
tp6728
aa(F597.0
F319.0
tp6729
aa(F394.0
F445.0
tp6730
aa(lp6731
(I15
F0.1762
tp6732
a(lp6733
(I12
F0.7006
tp6734
a(F707.0
F477.0
tp6735
a(lp6736
(I10
F1.7649
tp6737
a(F529.0
F753.0
tp6738
a(F226.0
F563.0
tp6739
aaa(lp6740
(I5
F0.2893
tp6741
a(F167.0
F770.0
tp6742
a(F38.0
F771.0
tp6743
aaaaa(lp6744
(I1
F0.1325
tp6745
a(lp6746
(I3
F0.073
tp6747
a(lp6748
(I5
F0.0775
tp6749
a(lp6750
(I11
F0.0621
tp6751
a(lp6752
(I6
F1.8362
tp6753
a(lp6754
(I5
F0.0599
tp6755
a(lp6756
(I7
F0.013
tp6757
a(lp6758
(I6
F0.3505
tp6759
a(lp6760
(I5
F0.0039
tp6761
a(lp6762
(I0
F0.159
tp6763
a(F1218.0
F24.0
tp6764
a(F998.0
F9.0
tp6765
aa(F1172.0
F38.0
tp6766
aa(lp6767
(I6
F1.0162
tp6768
a(F1127.0
F3.0
tp6769
a(F883.0
F12.0
tp6770
aaa(lp6771
(I15
F0.0605
tp6772
a(lp6773
(I6
F0.9935
tp6774
a(lp6775
(I0
F0.6284
tp6776
a(lp6777
(I10
F0.1497
tp6778
a(F768.0
F38.0
tp6779
a(F1018.0
F33.0
tp6780
aa(F862.0
F59.0
tp6781
aa(F1503.0
F40.0
tp6782
aa(lp6783
(I9
F0.0282
tp6784
a(F1117.0
F58.0
tp6785
a(F737.0
F80.0
tp6786
aaaa(F701.0
F82.0
tp6787
aa(F719.0
F86.0
tp6788
aa(lp6789
(I14
F0.067
tp6790
a(lp6791
(I13
F0.0862
tp6792
a(F1183.0
F126.0
tp6793
a(F779.0
F43.0
tp6794
aa(lp6795
(I13
F0.0711
tp6796
a(F841.0
F71.0
tp6797
a(F615.0
F166.0
tp6798
aaaa(lp6799
(I0
F0.1734
tp6800
a(F841.0
F138.0
tp6801
a(F624.0
F265.0
tp6802
aaa(lp6803
(I9
F0.091
tp6804
a(lp6805
(I8
F0.414
tp6806
a(lp6807
(I4
F0.0156
tp6808
a(F874.0
F89.0
tp6809
a(F799.0
F146.0
tp6810
aa(F1184.0
F290.0
tp6811
aa(lp6812
(I11
F0.1023
tp6813
a(F680.0
F353.0
tp6814
a(lp6815
(I12
F0.523
tp6816
a(lp6817
(I2
F0.0178
tp6818
a(F1053.0
F200.0
tp6819
a(F607.0
F224.0
tp6820
aa(F819.0
F479.0
tp6821
aaaaa(lp6822
(I12
F0.7109
tp6823
a(lp6824
(I15
F0.0967
tp6825
a(lp6826
(I12
F0.1122
tp6827
a(lp6828
(I0
F0.0605
tp6829
a(F1144.0
F196.0
tp6830
a(F695.0
F238.0
tp6831
aa(F700.0
F353.0
tp6832
aa(lp6833
(I4
F0.0007
tp6834
a(F945.0
F365.0
tp6835
a(F530.0
F606.0
tp6836
aaa(lp6837
(I13
F0.1789
tp6838
a(F696.0
F808.0
tp6839
a(lp6840
(I13
F0.2626
tp6841
a(F240.0
F861.0
tp6842
a(F87.0
F1122.0
tp6843
aaaaa(lp6844
(I3
F0.1219
tp6845
a(lp6846
(I13
F0.0584
tp6847
a(lp6848
(I1
F0.0426
tp6849
a(lp6850
(I8
F1.4471
tp6851
a(lp6852
(I5
F0.0015
tp6853
a(lp6854
(I15
F0.0375
tp6855
a(lp6856
(I9
F0.0046
tp6857
a(lp6858
(I6
F0.0962
tp6859
a(F1120.0
F2.0
tp6860
a(F1418.0
F12.0
tp6861
aa(F817.0
F19.0
tp6862
aa(F1340.0
F44.0
tp6863
aa(lp6864
(I7
F0.0256
tp6865
a(lp6866
(I14
F0.2735
tp6867
a(lp6868
(I9
F0.0074
tp6869
a(F802.0
F15.0
tp6870
a(F759.0
F52.0
tp6871
aa(F1149.0
F21.0
tp6872
aa(lp6873
(I0
F0.5779
tp6874
a(lp6875
(I4
F0.1553
tp6876
a(F997.0
F57.0
tp6877
a(F718.0
F61.0
tp6878
aa(F804.0
F23.0
tp6879
aaaa(F1256.0
F84.0
tp6880
aa(lp6881
(I15
F0.0627
tp6882
a(lp6883
(I7
F0.0555
tp6884
a(lp6885
(I14
F0.0283
tp6886
a(F1134.0
F136.0
tp6887
a(F978.0
F45.0
tp6888
aa(F777.0
F110.0
tp6889
aa(F655.0
F113.0
tp6890
aaa(lp6891
(I0
F0.0384
tp6892
a(lp6893
(I10
F0.0546
tp6894
a(lp6895
(I9
F0.1296
tp6896
a(lp6897
(I11
F0.0804
tp6898
a(F849.0
F59.0
tp6899
a(F918.0
F128.0
tp6900
aa(F879.0
F64.0
tp6901
aa(F1099.0
F268.0
tp6902
aa(lp6903
(I1
F0.0712
tp6904
a(lp6905
(I5
F0.0603
tp6906
a(F1051.0
F155.0
tp6907
a(F937.0
F286.0
tp6908
aa(lp6909
(I13
F0.131
tp6910
a(lp6911
(I7
F0.0746
tp6912
a(F727.0
F190.0
tp6913
a(lp6914
(I15
F0.0917
tp6915
a(F616.0
F199.0
tp6916
a(F504.0
F281.0
tp6917
aaa(F436.0
F363.0
tp6918
aaaaa(lp6919
(I8
F0.723
tp6920
a(lp6921
(I14
F0.0474
tp6922
a(lp6923
(I0
F0.001
tp6924
a(lp6925
(I11
F0.1097
tp6926
a(F700.0
F103.0
tp6927
a(lp6928
(I1
F0.1749
tp6929
a(F672.0
F183.0
tp6930
a(F707.0
F116.0
tp6931
aaa(lp6932
(I11
F0.1266
tp6933
a(F615.0
F187.0
tp6934
a(F550.0
F327.0
tp6935
aaa(lp6936
(I13
F0.1187
tp6937
a(F699.0
F259.0
tp6938
a(lp6939
(I3
F0.1734
tp6940
a(F449.0
F371.0
tp6941
a(F270.0
F527.0
tp6942
aaaa(lp6943
(I13
F0.1783
tp6944
a(lp6945
(I3
F0.1542
tp6946
a(F564.0
F399.0
tp6947
a(F454.0
F547.0
tp6948
aa(lp6949
(I1
F0.2804
tp6950
a(F230.0
F961.0
tp6951
a(F61.0
F982.0
tp6952
aaaaa(lp6953
(I9
F0.1266
tp6954
a(lp6955
(I5
F0.0647
tp6956
a(lp6957
(I13
F0.0538
tp6958
a(lp6959
(I13
F0.0123
tp6960
a(lp6961
(I11
F0.0571
tp6962
a(lp6963
(I15
F0.0504
tp6964
a(lp6965
(I10
F0.0447
tp6966
a(lp6967
(I5
F0.0016
tp6968
a(F1078.0
F16.0
tp6969
a(F741.0
F23.0
tp6970
aa(lp6971
(I2
F1.0791
tp6972
a(lp6973
(I5
F-0.0019
tp6974
a(F1476.0
F4.0
tp6975
a(F1110.0
F14.0
tp6976
aa(F940.0
F18.0
tp6977
aaa(F1217.0
F65.0
tp6978
aa(F711.0
F69.0
tp6979
aa(lp6980
(I1
F0.0189
tp6981
a(lp6982
(I9
F0.0114
tp6983
a(F904.0
F16.0
tp6984
a(F1499.0
F53.0
tp6985
aa(lp6986
(I9
F0.0433
tp6987
a(lp6988
(I6
F0.984
tp6989
a(F1463.0
F87.0
tp6990
a(F816.0
F28.0
tp6991
aa(F1173.0
F111.0
tp6992
aaaa(lp6993
(I11
F0.085
tp6994
a(lp6995
(I4
F0.1634
tp6996
a(F979.0
F74.0
tp6997
a(F1119.0
F163.0
tp6998
aa(F835.0
F166.0
tp6999
aaa(lp7000
(I15
F0.0957
tp7001
a(lp7002
(I1
F0.1137
tp7003
a(lp7004
(I4
F0.2527
tp7005
a(F1247.0
F145.0
tp7006
a(lp7007
(I11
F0.0713
tp7008
a(F1312.0
F229.0
tp7009
a(F966.0
F237.0
tp7010
aaa(lp7011
(I0
F0.7321
tp7012
a(lp7013
(I7
F0.097
tp7014
a(F759.0
F150.0
tp7015
a(F617.0
F194.0
tp7016
aa(F564.0
F325.0
tp7017
aaa(lp7018
(I14
F0.3271
tp7019
a(F967.0
F195.0
tp7020
a(lp7021
(I1
F0.1031
tp7022
a(F539.0
F286.0
tp7023
a(F388.0
F428.0
tp7024
aaaaa(lp7025
(I12
F0.5866
tp7026
a(lp7027
(I8
F0.0318
tp7028
a(lp7029
(I5
F0.1194
tp7030
a(F1170.0
F120.0
tp7031
a(lp7032
(I7
F0.1945
tp7033
a(F840.0
F263.0
tp7034
a(F641.0
F123.0
tp7035
aaa(lp7036
(I3
F0.1485
tp7037
a(F841.0
F362.0
tp7038
a(F512.0
F648.0
tp7039
aaa(lp7040
(I7
F0.2025
tp7041
a(lp7042
(I5
F0.1611
tp7043
a(F792.0
F694.0
tp7044
a(F362.0
F919.0
tp7045
aa(lp7046
(I9
F0.2729
tp7047
a(F129.0
F677.0
tp7048
a(F56.0
F795.0
tp7049
aaaaa(lp7050
(I7
F0.1304
tp7051
a(lp7052
(I9
F0.067
tp7053
a(lp7054
(I5
F0.0588
tp7055
a(lp7056
(I3
F0.0237
tp7057
a(lp7058
(I13
F0.0356
tp7059
a(lp7060
(I7
F0.0253
tp7061
a(lp7062
(I9
F0.0176
tp7063
a(lp7064
(I0
F0.0987
tp7065
a(lp7066
(I7
F-0.0117
tp7067
a(F808.0
F12.0
tp7068
a(F764.0
F18.0
tp7069
aa(lp7070
(I5
F0.0069
tp7071
a(lp7072
(I0
F1.0061
tp7073
a(F1316.0
F0.0
tp7074
a(F798.0
F3.0
tp7075
aa(F789.0
F7.0
tp7076
aaa(F819.0
F22.0
tp7077
aa(lp7078
(I6
F0.5126
tp7079
a(F783.0
F45.0
tp7080
a(F998.0
F29.0
tp7081
aaa(F1323.0
F70.0
tp7082
aa(lp7083
(I15
F0.0496
tp7084
a(lp7085
(I11
F0.057
tp7086
a(lp7087
(I0
F0.6567
tp7088
a(F1139.0
F26.0
tp7089
a(F1333.0
F66.0
tp7090
aa(F786.0
F84.0
tp7091
aa(F1224.0
F164.0
tp7092
aaa(lp7093
(I4
F1.3237
tp7094
a(lp7095
(I0
F0.6039
tp7096
a(lp7097
(I1
F0.0835
tp7098
a(F958.0
F72.0
tp7099
a(F696.0
F96.0
tp7100
aa(F727.0
F144.0
tp7101
aa(F654.0
F147.0
tp7102
aaa(lp7103
(I11
F0.2155
tp7104
a(lp7105
(I10
F0.1468
tp7106
a(lp7107
(I12
F0.1817
tp7108
a(lp7109
(I1
F0.0649
tp7110
a(F950.0
F60.0
tp7111
a(lp7112
(I3
F0.1134
tp7113
a(F916.0
F97.0
tp7114
a(F1132.0
F248.0
tp7115
aaa(F660.0
F179.0
tp7116
aa(lp7117
(I4
F0.274
tp7118
a(lp7119
(I5
F0.0853
tp7120
a(F1089.0
F174.0
tp7121
a(F660.0
F272.0
tp7122
aa(lp7123
(I5
F0.1219
tp7124
a(lp7125
(I7
F0.0938
tp7126
a(lp7127
(I4
F1.011
tp7128
a(F768.0
F272.0
tp7129
a(F816.0
F171.0
tp7130
aa(F524.0
F262.0
tp7131
aa(F631.0
F560.0
tp7132
aaaa(F433.0
F502.0
tp7133
aaa(lp7134
(I6
F0.3268
tp7135
a(lp7136
(I14
F0.0787
tp7137
a(lp7138
(I3
F0.1133
tp7139
a(F1037.0
F73.0
tp7140
a(lp7141
(I11
F0.1748
tp7142
a(F782.0
F170.0
tp7143
a(F626.0
F161.0
tp7144
aaa(F531.0
F398.0
tp7145
aa(lp7146
(I1
F0.2156
tp7147
a(lp7148
(I5
F0.1329
tp7149
a(F499.0
F277.0
tp7150
a(lp7151
(I12
F1.468
tp7152
a(F490.0
F657.0
tp7153
a(F206.0
F611.0
tp7154
aaa(lp7155
(I12
F2.1562
tp7156
a(F148.0
F648.0
tp7157
a(F71.0
F779.0
tp7158
aaaaa(lp7159
(I3
F0.1219
tp7160
a(lp7161
(I13
F0.0576
tp7162
a(lp7163
(I3
F0.0327
tp7164
a(lp7165
(I5
F0.0146
tp7166
a(lp7167
(I0
F0.3136
tp7168
a(lp7169
(I5
F-0.0363
tp7170
a(F990.0
F10.0
tp7171
a(lp7172
(I9
F0.0132
tp7173
a(lp7174
(I7
F0.0062
tp7175
a(F1018.0
F14.0
tp7176
a(F860.0
F22.0
tp7177
aa(F791.0
F59.0
tp7178
aaa(lp7179
(I11
F0.0111
tp7180
a(lp7181
(I9
F-0.0114
tp7182
a(F1268.0
F2.0
tp7183
a(F1013.0
F10.0
tp7184
aa(F774.0
F22.0
tp7185
aaa(lp7186
(I11
F0.0343
tp7187
a(lp7188
(I7
F0.0403
tp7189
a(lp7190
(I8
F0.5204
tp7191
a(F834.0
F11.0
tp7192
a(F833.0
F36.0
tp7193
aa(F748.0
F50.0
tp7194
aa(F820.0
F67.0
tp7195
aaa(lp7196
(I11
F0.0973
tp7197
a(lp7198
(I5
F0.0693
tp7199
a(lp7200
(I15
F0.0539
tp7201
a(lp7202
(I15
F0.0264
tp7203
a(F1495.0
F80.0
tp7204
a(F1000.0
F30.0
tp7205
aa(F847.0
F98.0
tp7206
aa(F864.0
F135.0
tp7207
aa(F666.0
F123.0
tp7208
aaa(lp7209
(I6
F0.1766
tp7210
a(lp7211
(I10
F0.5457
tp7212
a(lp7213
(I2
F0.0351
tp7214
a(lp7215
(I5
F0.0925
tp7216
a(lp7217
(I3
F0.0418
tp7218
a(F833.0
F37.0
tp7219
a(F1053.0
F96.0
tp7220
aa(F911.0
F153.0
tp7221
aa(F942.0
F149.0
tp7222
aa(F831.0
F258.0
tp7223
aa(lp7224
(I9
F0.0962
tp7225
a(lp7226
(I3
F0.0761
tp7227
a(lp7228
(I15
F0.0758
tp7229
a(F876.0
F126.0
tp7230
a(F608.0
F223.0
tp7231
aa(F788.0
F247.0
tp7232
aa(lp7233
(I7
F0.107
tp7234
a(F778.0
F267.0
tp7235
a(F418.0
F378.0
tp7236
aaaaa(lp7237
(I12
F0.7385
tp7238
a(lp7239
(I8
F0.0098
tp7240
a(lp7241
(I15
F0.0766
tp7242
a(lp7243
(I1
F0.1563
tp7244
a(F723.0
F124.0
tp7245
a(F938.0
F188.0
tp7246
aa(lp7247
(I9
F0.1544
tp7248
a(F610.0
F203.0
tp7249
a(F709.0
F270.0
tp7250
aaa(lp7251
(I9
F0.134
tp7252
a(F933.0
F345.0
tp7253
a(lp7254
(I6
F0.1798
tp7255
a(F515.0
F415.0
tp7256
a(F323.0
F521.0
tp7257
aaaa(lp7258
(I9
F0.1933
tp7259
a(lp7260
(I13
F0.147
tp7261
a(F624.0
F521.0
tp7262
a(F281.0
F634.0
tp7263
aa(lp7264
(I7
F0.2254
tp7265
a(F177.0
F632.0
tp7266
a(F92.0
F1120.0
tp7267
aaaaa(lp7268
(I5
F0.1337
tp7269
a(lp7270
(I1
F0.0602
tp7271
a(lp7272
(I3
F0.0159
tp7273
a(lp7274
(I9
F0.0365
tp7275
a(lp7276
(I15
F0.0374
tp7277
a(lp7278
(I9
F0.0107
tp7279
a(lp7280
(I5
F0.0088
tp7281
a(lp7282
(I6
F0.2472
tp7283
a(F1500.0
F17.0
tp7284
a(lp7285
(I4
F0.8345
tp7286
a(F872.0
F0.0
tp7287
a(F754.0
F4.0
tp7288
aaa(F861.0
F17.0
tp7289
aa(F1113.0
F26.0
tp7290
aa(lp7291
(I12
F0.2977
tp7292
a(F1497.0
F32.0
tp7293
a(F795.0
F55.0
tp7294
aaa(lp7295
(I12
F0.1338
tp7296
a(F777.0
F40.0
tp7297
a(F791.0
F113.0
tp7298
aaa(lp7299
(I9
F0.0561
tp7300
a(lp7301
(I11
F0.0373
tp7302
a(lp7303
(I5
F0.0453
tp7304
a(lp7305
(I15
F0.0252
tp7306
a(F1414.0
F28.0
tp7307
a(F1142.0
F71.0
tp7308
aa(F727.0
F53.0
tp7309
aa(lp7310
(I1
F0.0364
tp7311
a(F735.0
F54.0
tp7312
a(F920.0
F100.0
tp7313
aaa(lp7314
(I4
F0.0355
tp7315
a(F1007.0
F114.0
tp7316
a(F1078.0
F248.0
tp7317
aaaa(lp7318
(I9
F0.093
tp7319
a(lp7320
(I5
F0.0823
tp7321
a(lp7322
(I13
F0.0614
tp7323
a(lp7324
(I9
F0.0376
tp7325
a(F774.0
F53.0
tp7326
a(F989.0
F116.0
tp7327
aa(F1025.0
F208.0
tp7328
aa(lp7329
(I10
F0.604
tp7330
a(F1112.0
F198.0
tp7331
a(F585.0
F208.0
tp7332
aaa(lp7333
(I14
F0.3273
tp7334
a(lp7335
(I12
F0.2723
tp7336
a(lp7337
(I2
F0.0037
tp7338
a(lp7339
(I13
F0.1179
tp7340
a(F650.0
F153.0
tp7341
a(F738.0
F75.0
tp7342
aa(F677.0
F221.0
tp7343
aa(F626.0
F286.0
tp7344
aa(lp7345
(I5
F0.1046
tp7346
a(F703.0
F266.0
tp7347
a(F596.0
F445.0
tp7348
aaaaa(lp7349
(I8
F0.1659
tp7350
a(lp7351
(I0
F0.1049
tp7352
a(lp7353
(I3
F0.1497
tp7354
a(F752.0
F146.0
tp7355
a(lp7356
(I3
F0.1954
tp7357
a(F619.0
F186.0
tp7358
a(F673.0
F140.0
tp7359
aaa(F618.0
F397.0
tp7360
aa(lp7361
(I1
F0.2051
tp7362
a(lp7363
(I7
F0.1456
tp7364
a(F896.0
F682.0
tp7365
a(F562.0
F971.0
tp7366
aa(lp7367
(I12
F1.8694
tp7368
a(F212.0
F729.0
tp7369
a(F103.0
F1115.0
tp7370
aaaaa(lp7371
(I9
F0.1213
tp7372
a(lp7373
(I11
F0.0708
tp7374
a(lp7375
(I1
F0.0857
tp7376
a(lp7377
(I13
F0.0549
tp7378
a(lp7379
(I13
F0.0255
tp7380
a(lp7381
(I3
F0.0162
tp7382
a(lp7383
(I15
F0.0408
tp7384
a(lp7385
(I7
F0.013
tp7386
a(lp7387
(I15
F-0.0178
tp7388
a(F1248.0
F16.0
tp7389
a(lp7390
(I14
F0.3996
tp7391
a(F1108.0
F7.0
tp7392
a(F1034.0
F0.0
tp7393
aaa(F1226.0
F41.0
tp7394
aa(F1443.0
F49.0
tp7395
aa(lp7396
(I9
F0.0085
tp7397
a(F1196.0
F34.0
tp7398
a(F1344.0
F81.0
tp7399
aaa(lp7400
(I15
F0.0621
tp7401
a(lp7402
(I13
F0.0351
tp7403
a(F1078.0
F61.0
tp7404
a(lp7405
(I9
F0.0371
tp7406
a(F787.0
F19.0
tp7407
a(F973.0
F50.0
tp7408
aaa(F950.0
F83.0
tp7409
aaa(lp7410
(I2
F0.0615
tp7411
a(F1057.0
F75.0
tp7412
a(lp7413
(I0
F0.9211
tp7414
a(F825.0
F182.0
tp7415
a(F735.0
F107.0
tp7416
aaaa(lp7417
(I4
F0.3729
tp7418
a(F962.0
F163.0
tp7419
a(F680.0
F276.0
tp7420
aaa(lp7421
(I4
F0.4616
tp7422
a(lp7423
(I5
F0.0855
tp7424
a(lp7425
(I3
F0.0815
tp7426
a(lp7427
(I1
F0.0492
tp7428
a(F1088.0
F68.0
tp7429
a(F719.0
F61.0
tp7430
aa(F764.0
F138.0
tp7431
aa(lp7432
(I14
F0.0072
tp7433
a(F963.0
F183.0
tp7434
a(F613.0
F259.0
tp7435
aaa(lp7436
(I7
F0.1029
tp7437
a(lp7438
(I9
F0.0765
tp7439
a(F687.0
F112.0
tp7440
a(F968.0
F314.0
tp7441
aa(F505.0
F408.0
tp7442
aaaa(lp7443
(I8
F0.1688
tp7444
a(lp7445
(I3
F0.1245
tp7446
a(lp7447
(I11
F0.142
tp7448
a(F825.0
F79.0
tp7449
a(F706.0
F103.0
tp7450
aa(lp7451
(I14
F0.0041
tp7452
a(lp7453
(I3
F0.1842
tp7454
a(F732.0
F157.0
tp7455
a(F738.0
F174.0
tp7456
aa(F427.0
F393.0
tp7457
aaa(lp7458
(I5
F0.2114
tp7459
a(lp7460
(I12
F1.4921
tp7461
a(lp7462
(I13
F0.1398
tp7463
a(lp7464
(I11
F0.1435
tp7465
a(F598.0
F206.0
tp7466
a(F461.0
F360.0
tp7467
aa(F749.0
F701.0
tp7468
aa(F468.0
F726.0
tp7469
aa(lp7470
(I14
F1.1086
tp7471
a(F177.0
F690.0
tp7472
a(F78.0
F1172.0
tp7473
aaaaa(lp7474
(I7
F0.1149
tp7475
a(lp7476
(I1
F0.0797
tp7477
a(lp7478
(I9
F0.055
tp7479
a(lp7480
(I5
F0.029
tp7481
a(lp7482
(I7
F0.013
tp7483
a(lp7484
(I5
F0.0048
tp7485
a(lp7486
(I2
F0.0004
tp7487
a(F1297.0
F22.0
tp7488
a(lp7489
(I5
F-0.0274
tp7490
a(F844.0
F7.0
tp7491
a(lp7492
(I9
F-0.0039
tp7493
a(F964.0
F0.0
tp7494
a(F771.0
F4.0
tp7495
aaaa(F1359.0
F33.0
tp7496
aa(lp7497
(I8
F0.9208
tp7498
a(lp7499
(I7
F0.025
tp7500
a(F876.0
F17.0
tp7501
a(lp7502
(I7
F0.0493
tp7503
a(F1013.0
F52.0
tp7504
a(F776.0
F20.0
tp7505
aaa(F926.0
F51.0
tp7506
aaa(lp7507
(I8
F0.4273
tp7508
a(lp7509
(I11
F0.0252
tp7510
a(F1146.0
F44.0
tp7511
a(F927.0
F72.0
tp7512
aa(lp7513
(I6
F1.1163
tp7514
a(F1242.0
F137.0
tp7515
a(F922.0
F70.0
tp7516
aaaa(lp7517
(I3
F0.068
tp7518
a(lp7519
(I9
F0.1325
tp7520
a(lp7521
(I14
F0.7816
tp7522
a(lp7523
(I13
F0.0805
tp7524
a(F1078.0
F79.0
tp7525
a(F711.0
F85.0
tp7526
aa(F838.0
F134.0
tp7527
aa(F642.0
F135.0
tp7528
aa(F1053.0
F243.0
tp7529
aaa(lp7530
(I9
F0.197
tp7531
a(lp7532
(I10
F0.4572
tp7533
a(lp7534
(I5
F0.0936
tp7535
a(lp7536
(I1
F0.1132
tp7537
a(F882.0
F89.0
tp7538
a(F703.0
F108.0
tp7539
aa(lp7540
(I2
F0.1902
tp7541
a(F1241.0
F274.0
tp7542
a(F644.0
F245.0
tp7543
aaa(lp7544
(I5
F0.1179
tp7545
a(lp7546
(I13
F0.0902
tp7547
a(F1041.0
F221.0
tp7548
a(F556.0
F260.0
tp7549
aa(F504.0
F379.0
tp7550
aaa(F350.0
F460.0
tp7551
aaa(lp7552
(I12
F0.7181
tp7553
a(lp7554
(I12
F0.0035
tp7555
a(lp7556
(I14
F0.002
tp7557
a(lp7558
(I1
F0.151
tp7559
a(F1603.0
F112.0
tp7560
a(F934.0
F209.0
tp7561
aa(F520.0
F253.0
tp7562
aa(lp7563
(I2
F0.0496
tp7564
a(F619.0
F298.0
tp7565
a(F796.0
F700.0
tp7566
aaa(lp7567
(I15
F0.1762
tp7568
a(lp7569
(I5
F0.16
tp7570
a(F673.0
F542.0
tp7571
a(F275.0
F687.0
tp7572
aa(lp7573
(I13
F0.267
tp7574
a(F149.0
F646.0
tp7575
a(F55.0
F842.0
tp7576
aaaaa(lp7577
(I9
F0.1149
tp7578
a(lp7579
(I1
F0.0819
tp7580
a(lp7581
(I3
F0.0343
tp7582
a(lp7583
(I13
F0.0573
tp7584
a(lp7585
(I9
F0.0408
tp7586
a(lp7587
(I11
F0.0343
tp7588
a(lp7589
(I11
F-0.045
tp7590
a(lp7591
(I7
F0.0007
tp7592
a(F847.0
F13.0
tp7593
a(F732.0
F36.0
tp7594
aa(lp7595
(I15
F0.0268
tp7596
a(lp7597
(I7
F-0.0181
tp7598
a(F1035.0
F5.0
tp7599
a(lp7600
(I12
F0.1602
tp7601
a(F892.0
F21.0
tp7602
a(lp7603
(I11
F-0.0077
tp7604
a(F834.0
F1.0
tp7605
a(F1223.0
F15.0
tp7606
aaaa(lp7607
(I9
F-0.0028
tp7608
a(F1037.0
F15.0
tp7609
a(F1511.0
F53.0
tp7610
aaaa(F1063.0
F48.0
tp7611
aa(F997.0
F72.0
tp7612
aa(lp7613
(I12
F0.5566
tp7614
a(F849.0
F75.0
tp7615
a(F638.0
F150.0
tp7616
aaa(lp7617
(I11
F0.0617
tp7618
a(lp7619
(I13
F0.0448
tp7620
a(lp7621
(I15
F0.0392
tp7622
a(F1402.0
F60.0
tp7623
a(F698.0
F69.0
tp7624
aa(lp7625
(I14
F0.6094
tp7626
a(F805.0
F79.0
tp7627
a(F716.0
F121.0
tp7628
aaa(lp7629
(I9
F0.0836
tp7630
a(lp7631
(I8
F0.3407
tp7632
a(F770.0
F97.0
tp7633
a(F876.0
F148.0
tp7634
aa(F752.0
F178.0
tp7635
aaaa(lp7636
(I7
F0.1036
tp7637
a(lp7638
(I12
F0.5004
tp7639
a(lp7640
(I1
F0.1179
tp7641
a(F981.0
F130.0
tp7642
a(F1150.0
F237.0
tp7643
aa(F1166.0
F375.0
tp7644
aa(lp7645
(I8
F0.1605
tp7646
a(F943.0
F219.0
tp7647
a(F638.0
F460.0
tp7648
aaaa(lp7649
(I4
F0.4429
tp7650
a(lp7651
(I8
F0.0317
tp7652
a(lp7653
(I7
F0.0754
tp7654
a(F988.0
F117.0
tp7655
a(lp7656
(I7
F0.2013
tp7657
a(lp7658
(I13
F0.145
tp7659
a(F684.0
F157.0
tp7660
a(F700.0
F183.0
tp7661
aa(F694.0
F124.0
tp7662
aaa(lp7663
(I15
F0.1343
tp7664
a(lp7665
(I9
F0.1502
tp7666
a(F639.0
F213.0
tp7667
a(F571.0
F413.0
tp7668
aa(F375.0
F414.0
tp7669
aaa(lp7670
(I7
F0.1549
tp7671
a(lp7672
(I2
F1.1535
tp7673
a(F757.0
F479.0
tp7674
a(F501.0
F631.0
tp7675
aa(lp7676
(I5
F0.2112
tp7677
a(F305.0
F689.0
tp7678
a(lp7679
(I14
F2.4124
tp7680
a(F96.0
F703.0
tp7681
a(F38.0
F757.0
tp7682
aaaaaa(lp7683
(I13
F0.125
tp7684
a(lp7685
(I1
F0.0673
tp7686
a(lp7687
(I11
F0.0549
tp7688
a(lp7689
(I7
F0.0269
tp7690
a(lp7691
(I3
F0.0098
tp7692
a(lp7693
(I5
F0.0087
tp7694
a(lp7695
(I4
F0.5568
tp7696
a(lp7697
(I12
F0.2992
tp7698
a(F1374.0
F26.0
tp7699
a(F971.0
F6.0
tp7700
aa(F1545.0
F8.0
tp7701
aa(F939.0
F28.0
tp7702
aa(lp7703
(I7
F0.0131
tp7704
a(lp7705
(I0
F0.5426
tp7706
a(F780.0
F35.0
tp7707
a(F820.0
F19.0
tp7708
aa(F931.0
F49.0
tp7709
aaa(lp7710
(I13
F0.0595
tp7711
a(lp7712
(I14
F0.0083
tp7713
a(F1484.0
F52.0
tp7714
a(lp7715
(I0
F0.8411
tp7716
a(lp7717
(I3
F0.027
tp7718
a(F1231.0
F73.0
tp7719
a(F702.0
F75.0
tp7720
aa(F1025.0
F51.0
tp7721
aaa(F789.0
F125.0
tp7722
aaa(lp7723
(I8
F0.0257
tp7724
a(lp7725
(I3
F0.0329
tp7726
a(F741.0
F42.0
tp7727
a(F705.0
F76.0
tp7728
aa(lp7729
(I7
F0.045
tp7730
a(F1134.0
F131.0
tp7731
a(F955.0
F220.0
tp7732
aaaa(lp7733
(I10
F0.3713
tp7734
a(lp7735
(I5
F0.0871
tp7736
a(lp7737
(I5
F0.0555
tp7738
a(F833.0
F66.0
tp7739
a(F970.0
F155.0
tp7740
aa(lp7741
(I12
F0.1392
tp7742
a(lp7743
(I11
F0.1008
tp7744
a(F1167.0
F185.0
tp7745
a(F791.0
F232.0
tp7746
aa(F564.0
F246.0
tp7747
aaa(lp7748
(I3
F0.1285
tp7749
a(lp7750
(I11
F0.0788
tp7751
a(F1085.0
F198.0
tp7752
a(lp7753
(I9
F0.104
tp7754
a(F818.0
F254.0
tp7755
a(F569.0
F265.0
tp7756
aaa(F752.0
F495.0
tp7757
aaaa(lp7758
(I10
F0.0538
tp7759
a(lp7760
(I0
F0.0015
tp7761
a(lp7762
(I9
F0.1776
tp7763
a(F1356.0
F199.0
tp7764
a(F990.0
F177.0
tp7765
aa(F524.0
F297.0
tp7766
aa(lp7767
(I13
F0.2072
tp7768
a(lp7769
(I14
F0.6767
tp7770
a(lp7771
(I0
F0.2298
tp7772
a(F591.0
F223.0
tp7773
a(F568.0
F568.0
tp7774
aa(lp7775
(I5
F0.1483
tp7776
a(F442.0
F397.0
tp7777
a(F325.0
F772.0
tp7778
aaa(lp7779
(I6
F0.8561
tp7780
a(F218.0
F578.0
tp7781
a(F144.0
F1304.0
tp7782
aaaaa(lp7783
(I13
F0.137
tp7784
a(lp7785
(I5
F0.0599
tp7786
a(lp7787
(I5
F0.0126
tp7788
a(lp7789
(I9
F0.0623
tp7790
a(lp7791
(I11
F0.0146
tp7792
a(lp7793
(I7
F0.013
tp7794
a(lp7795
(I4
F0.2235
tp7796
a(lp7797
(I11
F-0.0265
tp7798
a(F787.0
F12.0
tp7799
a(F790.0
F5.0
tp7800
aa(lp7801
(I11
F-0.0152
tp7802
a(F1.11
F1.0
tp7803
a(F814.0
F4.0
tp7804
aaa(lp7805
(I1
F-0.0176
tp7806
a(F860.0
F12.0
tp7807
a(F919.0
F37.0
tp7808
aaa(lp7809
(I15
F0.0106
tp7810
a(F828.0
F21.0
tp7811
a(F1037.0
F64.0
tp7812
aaa(F680.0
F107.0
tp7813
aa(lp7814
(I9
F0.043
tp7815
a(lp7816
(I5
F0.0222
tp7817
a(F1278.0
F34.0
tp7818
a(lp7819
(I2
F0.0309
tp7820
a(F992.0
F34.0
tp7821
a(lp7822
(I15
F0.0376
tp7823
a(lp7824
(I14
F0.0899
tp7825
a(F738.0
F41.0
tp7826
a(F888.0
F17.0
tp7827
aa(F886.0
F94.0
tp7828
aaaa(lp7829
(I13
F0.0724
tp7830
a(lp7831
(I6
F0.0378
tp7832
a(F928.0
F144.0
tp7833
a(F1363.0
F119.0
tp7834
aa(F961.0
F184.0
tp7835
aaaa(lp7836
(I3
F0.112
tp7837
a(lp7838
(I12
F0.5322
tp7839
a(lp7840
(I10
F0.0032
tp7841
a(lp7842
(I5
F0.0927
tp7843
a(F859.0
F68.0
tp7844
a(F694.0
F88.0
tp7845
aa(lp7846
(I8
F0.2753
tp7847
a(F805.0
F124.0
tp7848
a(F661.0
F156.0
tp7849
aaa(lp7850
(I15
F0.0827
tp7851
a(lp7852
(I8
F0.899
tp7853
a(F725.0
F110.0
tp7854
a(F1101.0
F229.0
tp7855
aa(F705.0
F342.0
tp7856
aaa(lp7857
(I10
F0.578
tp7858
a(lp7859
(I14
F0.0797
tp7860
a(lp7861
(I7
F0.0699
tp7862
a(F658.0
F118.0
tp7863
a(F1122.0
F267.0
tp7864
aa(F750.0
F331.0
tp7865
aa(F953.0
F615.0
tp7866
aaaa(lp7867
(I12
F0.322
tp7868
a(lp7869
(I10
F0.0018
tp7870
a(lp7871
(I7
F0.1132
tp7872
a(F771.0
F94.0
tp7873
a(lp7874
(I5
F0.1829
tp7875
a(F696.0
F135.0
tp7876
a(F600.0
F169.0
tp7877
aaa(F566.0
F401.0
tp7878
aa(lp7879
(I1
F0.2081
tp7880
a(lp7881
(I6
F1.2991
tp7882
a(lp7883
(I14
F0.4398
tp7884
a(F509.0
F355.0
tp7885
a(F437.0
F505.0
tp7886
aa(F223.0
F590.0
tp7887
aa(lp7888
(I5
F0.268
tp7889
a(F181.0
F591.0
tp7890
a(F99.0
F1268.0
tp7891
aaaaa(lp7892
(I1
F0.1136
tp7893
a(lp7894
(I5
F0.0657
tp7895
a(lp7896
(I13
F0.0449
tp7897
a(lp7898
(I9
F0.0564
tp7899
a(lp7900
(I15
F0.0361
tp7901
a(lp7902
(I5
F0.0057
tp7903
a(lp7904
(I9
F0.011
tp7905
a(lp7906
(I7
F0.0063
tp7907
a(lp7908
(I0
F0.3893
tp7909
a(F1099.0
F11.0
tp7910
a(F1339.0
F2.0
tp7911
aa(F844.0
F21.0
tp7912
aa(F805.0
F19.0
tp7913
aa(lp7914
(I11
F0.0436
tp7915
a(lp7916
(I10
F0.3591
tp7917
a(F1394.0
F45.0
tp7918
a(lp7919
(I8
F0.9319
tp7920
a(F785.0
F10.0
tp7921
a(F906.0
F26.0
tp7922
aaa(F747.0
F42.0
tp7923
aaa(lp7924
(I3
F0.0247
tp7925
a(lp7926
(I13
F-0.0042
tp7927
a(F939.0
F24.0
tp7928
a(F1328.0
F61.0
tp7929
aa(F1001.0
F103.0
tp7930
aaa(F808.0
F125.0
tp7931
aa(lp7932
(I3
F0.0669
tp7933
a(lp7934
(I15
F0.0773
tp7935
a(lp7936
(I12
F1.1931
tp7937
a(lp7938
(I11
F0.0612
tp7939
a(F901.0
F46.0
tp7940
a(F769.0
F60.0
tp7941
aa(F838.0
F79.0
tp7942
aa(lp7943
(I5
F0.0313
tp7944
a(F701.0
F87.0
tp7945
a(F702.0
F110.0
tp7946
aaa(F667.0
F145.0
tp7947
aaa(lp7948
(I8
F0.3462
tp7949
a(lp7950
(I14
F0.078
tp7951
a(lp7952
(I15
F0.0454
tp7953
a(F850.0
F122.0
tp7954
a(F1152.0
F135.0
tp7955
aa(F899.0
F250.0
tp7956
aa(lp7957
(I9
F0.0922
tp7958
a(lp7959
(I15
F0.0692
tp7960
a(F1042.0
F171.0
tp7961
a(F664.0
F265.0
tp7962
aa(F957.0
F506.0
tp7963
aaaa(lp7964
(I8
F0.7167
tp7965
a(lp7966
(I15
F0.0989
tp7967
a(lp7968
(I10
F0.0852
tp7969
a(lp7970
(I11
F0.1453
tp7971
a(lp7972
(I7
F0.0725
tp7973
a(F690.0
F89.0
tp7974
a(F774.0
F199.0
tp7975
aa(F648.0
F175.0
tp7976
aa(F1109.0
F489.0
tp7977
aa(lp7978
(I10
F0.0011
tp7979
a(F1193.0
F391.0
tp7980
a(F674.0
F806.0
tp7981
aaa(lp7982
(I11
F0.1973
tp7983
a(lp7984
(I1
F0.1669
tp7985
a(lp7986
(I5
F0.1329
tp7987
a(F557.0
F258.0
tp7988
a(F366.0
F479.0
tp7989
aa(F334.0
F648.0
tp7990
aa(lp7991
(I3
F0.2611
tp7992
a(F195.0
F674.0
tp7993
a(F75.0
F1035.0
tp7994
aaaaa(lp7995
(I5
F0.127
tp7996
a(lp7997
(I1
F0.0572
tp7998
a(lp7999
(I9
F0.0559
tp8000
a(lp8001
(I5
F0.0146
tp8002
a(lp8003
(I15
F0.0361
tp8004
a(lp8005
(I1
F0.0077
tp8006
a(lp8007
(I13
F0.0108
tp8008
a(lp8009
(I4
F0.461
tp8010
a(lp8011
(I7
F-0.0069
tp8012
a(F934.0
F6.0
tp8013
a(F793.0
F9.0
tp8014
aa(F1.376
F1.0
tp8015
aa(F832.0
F14.0
tp8016
aa(F1131.0
F30.0
tp8017
aa(lp8018
(I14
F0.0707
tp8019
a(F822.0
F19.0
tp8020
a(F1247.0
F52.0
tp8021
aaa(lp8022
(I9
F-0.006
tp8023
a(F1308.0
F43.0
tp8024
a(lp8025
(I9
F0.0433
tp8026
a(lp8027
(I9
F0.0216
tp8028
a(lp8029
(I13
F0.0178
tp8030
a(F895.0
F62.0
tp8031
a(F711.0
F74.0
tp8032
aa(lp8033
(I13
F0.0385
tp8034
a(F1174.0
F37.0
tp8035
a(F709.0
F53.0
tp8036
aaa(F868.0
F87.0
tp8037
aaaa(lp8038
(I12
F0.301
tp8039
a(lp8040
(I3
F0.0275
tp8041
a(F814.0
F51.0
tp8042
a(F762.0
F97.0
tp8043
aa(F1281.0
F260.0
tp8044
aaa(lp8045
(I13
F0.0718
tp8046
a(lp8047
(I9
F0.093
tp8048
a(lp8049
(I4
F0.6471
tp8050
a(lp8051
(I6
F0.0588
tp8052
a(F1175.0
F152.0
tp8053
a(F782.0
F69.0
tp8054
aa(F1161.0
F172.0
tp8055
aa(F704.0
F191.0
tp8056
aa(lp8057
(I8
F0.0184
tp8058
a(lp8059
(I15
F0.1088
tp8060
a(F1009.0
F200.0
tp8061
a(F732.0
F96.0
tp8062
aa(lp8063
(I7
F0.1036
tp8064
a(lp8065
(I0
F1.225
tp8066
a(lp8067
(I2
F0.2649
tp8068
a(F673.0
F133.0
tp8069
a(F761.0
F256.0
tp8070
aa(F556.0
F253.0
tp8071
aa(F828.0
F484.0
tp8072
aaaaa(lp8073
(I4
F0.2753
tp8074
a(lp8075
(I14
F0.1053
tp8076
a(lp8077
(I13
F0.1122
tp8078
a(F734.0
F114.0
tp8079
a(lp8080
(I13
F0.1677
tp8081
a(F607.0
F205.0
tp8082
a(F939.0
F185.0
tp8083
aaa(F572.0
F556.0
tp8084
aa(lp8085
(I13
F0.1807
tp8086
a(lp8087
(I14
F0.6793
tp8088
a(lp8089
(I7
F0.1118
tp8090
a(F577.0
F311.0
tp8091
a(F401.0
F391.0
tp8092
aa(F554.0
F750.0
tp8093
aa(lp8094
(I14
F1.4801
tp8095
a(F331.0
F896.0
tp8096
a(F127.0
F1271.0
tp8097
aaaaa(lp8098
(I3
F0.1218
tp8099
a(lp8100
(I4
F2.1668
tp8101
a(lp8102
(I9
F0.07
tp8103
a(lp8104
(I13
F0.0536
tp8105
a(lp8106
(I1
F0.0272
tp8107
a(lp8108
(I15
F0.0118
tp8109
a(lp8110
(I5
F0.0063
tp8111
a(lp8112
(I9
F-0.0001
tp8113
a(lp8114
(I14
F0.1507
tp8115
a(F1338.0
F4.0
tp8116
a(F859.0
F0.0
tp8117
aa(F786.0
F12.0
tp8118
aa(F1361.0
F38.0
tp8119
aa(lp8120
(I3
F0.0024
tp8121
a(lp8122
(I15
F0.0407
tp8123
a(F1026.0
F14.0
tp8124
a(lp8125
(I15
F0.0989
tp8126
a(F764.0
F37.0
tp8127
a(F805.0
F16.0
tp8128
aaa(lp8129
(I4
F0.3689
tp8130
a(F872.0
F61.0
tp8131
a(F951.0
F38.0
tp8132
aaaa(lp8133
(I7
F0.0696
tp8134
a(lp8135
(I13
F0.0293
tp8136
a(lp8137
(I8
F0.4974
tp8138
a(F1192.0
F35.0
tp8139
a(F784.0
F46.0
tp8140
aa(lp8141
(I0
F0.55
tp8142
a(F745.0
F49.0
tp8143
a(F855.0
F79.0
tp8144
aaa(F770.0
F116.0
tp8145
aaa(lp8146
(I5
F0.0844
tp8147
a(lp8148
(I15
F0.0593
tp8149
a(F1126.0
F90.0
tp8150
a(F1042.0
F167.0
tp8151
aa(F684.0
F196.0
tp8152
aaa(lp8153
(I6
F0.2454
tp8154
a(lp8155
(I2
F0.3155
tp8156
a(lp8157
(I5
F0.0922
tp8158
a(lp8159
(I8
F0.0635
tp8160
a(lp8161
(I5
F0.0499
tp8162
a(F868.0
F41.0
tp8163
a(F695.0
F66.0
tp8164
aa(F724.0
F141.0
tp8165
aa(F1147.0
F196.0
tp8166
aa(F764.0
F254.0
tp8167
aa(lp8168
(I15
F0.1049
tp8169
a(lp8170
(I8
F1.0795
tp8171
a(F844.0
F256.0
tp8172
a(F758.0
F158.0
tp8173
aa(F530.0
F428.0
tp8174
aaaa(F618.0
F246.0
tp8175
aa(lp8176
(I0
F1.1683
tp8177
a(lp8178
(I8
F0.073
tp8179
a(lp8180
(I14
F0.0797
tp8181
a(lp8182
(I2
F0.0087
tp8183
a(lp8184
(I7
F0.143
tp8185
a(F951.0
F141.0
tp8186
a(F927.0
F188.0
tp8187
aa(F632.0
F187.0
tp8188
aa(F471.0
F335.0
tp8189
aa(lp8190
(I14
F0.9441
tp8191
a(lp8192
(I8
F0.3276
tp8193
a(F554.0
F300.0
tp8194
a(lp8195
(I9
F0.1552
tp8196
a(F538.0
F291.0
tp8197
a(F406.0
F401.0
tp8198
aaa(F348.0
F711.0
tp8199
aaa(lp8200
(I9
F0.1704
tp8201
a(F788.0
F697.0
tp8202
a(lp8203
(I13
F0.2516
tp8204
a(F215.0
F602.0
tp8205
a(F63.0
F1022.0
tp8206
aaaaa(lp8207
(I13
F0.1385
tp8208
a(lp8209
(I1
F0.0888
tp8210
a(lp8211
(I1
F0.0567
tp8212
a(lp8213
(I5
F0.062
tp8214
a(lp8215
(I13
F0.0394
tp8216
a(lp8217
(I1
F0.0152
tp8218
a(lp8219
(I11
F0.0368
tp8220
a(lp8221
(I11
F-0.0633
tp8222
a(F778.0
F33.0
tp8223
a(lp8224
(I13
F0.0149
tp8225
a(lp8226
(I7
F0.013
tp8227
a(lp8228
(I0
F0.1459
tp8229
a(F1096.0
F11.0
tp8230
a(lp8231
(I15
F-0.0045
tp8232
a(F1080.0
F0.0
tp8233
a(F769.0
F1.0
tp8234
aaa(F1322.0
F39.0
tp8235
aa(F1116.0
F25.0
tp8236
aaa(F737.0
F45.0
tp8237
aa(lp8238
(I13
F0.0118
tp8239
a(lp8240
(I2
F0.4073
tp8241
a(F744.0
F26.0
tp8242
a(F814.0
F15.0
tp8243
aa(lp8244
(I0
F0.8072
tp8245
a(F1184.0
F91.0
tp8246
a(F793.0
F37.0
tp8247
aaaa(lp8248
(I15
F0.0503
tp8249
a(lp8250
(I11
F0.0476
tp8251
a(F859.0
F31.0
tp8252
a(F742.0
F60.0
tp8253
aa(lp8254
(I6
F0.0053
tp8255
a(F864.0
F52.0
tp8256
a(F983.0
F151.0
tp8257
aaaa(F1322.0
F214.0
tp8258
aa(lp8259
(I9
F0.082
tp8260
a(lp8261
(I13
F0.0553
tp8262
a(F1359.0
F118.0
tp8263
a(F1161.0
F219.0
tp8264
aa(F1163.0
F293.0
tp8265
aaa(lp8266
(I6
F0.3559
tp8267
a(lp8268
(I8
F0.0481
tp8269
a(lp8270
(I13
F0.0655
tp8271
a(F1025.0
F136.0
tp8272
a(lp8273
(I3
F0.14
tp8274
a(F839.0
F171.0
tp8275
a(F641.0
F185.0
tp8276
aaa(lp8277
(I3
F0.1291
tp8278
a(F846.0
F203.0
tp8279
a(F735.0
F400.0
tp8280
aaa(lp8281
(I7
F0.1148
tp8282
a(lp8283
(I13
F0.0866
tp8284
a(F617.0
F153.0
tp8285
a(F645.0
F279.0
tp8286
aa(F707.0
F568.0
tp8287
aaaa(lp8288
(I0
F0.241
tp8289
a(lp8290
(I12
F0.1124
tp8291
a(lp8292
(I3
F0.1113
tp8293
a(F836.0
F62.0
tp8294
a(lp8295
(I9
F0.1952
tp8296
a(F616.0
F194.0
tp8297
a(F647.0
F149.0
tp8298
aaa(F625.0
F466.0
tp8299
aa(lp8300
(I5
F0.2112
tp8301
a(lp8302
(I14
F0.69
tp8303
a(F566.0
F478.0
tp8304
a(F437.0
F861.0
tp8305
aa(lp8306
(I11
F0.2675
tp8307
a(F188.0
F775.0
tp8308
a(F58.0
F1005.0
tp8309
aaaaa(lp8310
(I1
F0.1325
tp8311
a(lp8312
(I13
F0.0752
tp8313
a(lp8314
(I9
F0.0619
tp8315
a(lp8316
(I15
F0.0498
tp8317
a(lp8318
(I7
F0.0696
tp8319
a(lp8320
(I7
F0.0131
tp8321
a(lp8322
(I6
F0.3143
tp8323
a(lp8324
(I11
F0.0361
tp8325
a(lp8326
(I5
F0.0039
tp8327
a(lp8328
(I0
F0.1988
tp8329
a(F797.0
F10.0
tp8330
a(F841.0
F2.0
tp8331
aa(F1035.0
F42.0
tp8332
aa(F812.0
F43.0
tp8333
aa(lp8334
(I9
F0.0031
tp8335
a(F1353.0
F3.0
tp8336
a(F793.0
F10.0
tp8337
aaa(lp8338
(I11
F0.0529
tp8339
a(lp8340
(I2
F0.4721
tp8341
a(lp8342
(I6
F0.3399
tp8343
a(F802.0
F18.0
tp8344
a(F818.0
F10.0
tp8345
aa(lp8346
(I2
F1.1558
tp8347
a(F1193.0
F61.0
tp8348
a(F874.0
F23.0
tp8349
aaa(F733.0
F59.0
tp8350
aaa(F806.0
F66.0
tp8351
aa(lp8352
(I4
F0.4169
tp8353
a(lp8354
(I3
F0.0337
tp8355
a(lp8356
(I6
F0.0239
tp8357
a(F1162.0
F26.0
tp8358
a(F736.0
F48.0
tp8359
aa(F741.0
F87.0
tp8360
aa(F1294.0
F179.0
tp8361
aaa(lp8362
(I11
F0.114
tp8363
a(lp8364
(I14
F0.5649
tp8365
a(F1214.0
F115.0
tp8366
a(F749.0
F141.0
tp8367
aa(F633.0
F212.0
tp8368
aaa(lp8369
(I2
F0.158
tp8370
a(lp8371
(I4
F0.1414
tp8372
a(lp8373
(I3
F0.113
tp8374
a(lp8375
(I11
F0.0825
tp8376
a(F904.0
F76.0
tp8377
a(lp8378
(I7
F0.0636
tp8379
a(F779.0
F69.0
tp8380
a(F903.0
F178.0
tp8381
aaa(F617.0
F170.0
tp8382
aa(F554.0
F221.0
tp8383
aa(lp8384
(I11
F0.1369
tp8385
a(lp8386
(I7
F0.1145
tp8387
a(lp8388
(I12
F1.2802
tp8389
a(F1054.0
F278.0
tp8390
a(F734.0
F283.0
tp8391
aa(F491.0
F306.0
tp8392
aa(F530.0
F335.0
tp8393
aaaa(lp8394
(I12
F0.2224
tp8395
a(lp8396
(I2
F0.0172
tp8397
a(lp8398
(I15
F0.0887
tp8399
a(F1061.0
F156.0
tp8400
a(F912.0
F290.0
tp8401
aa(lp8402
(I7
F0.0936
tp8403
a(F687.0
F209.0
tp8404
a(F474.0
F286.0
tp8405
aaa(lp8406
(I11
F0.2169
tp8407
a(lp8408
(I6
F0.582
tp8409
a(F888.0
F655.0
tp8410
a(lp8411
(I7
F0.1515
tp8412
a(F405.0
F403.0
tp8413
a(F267.0
F810.0
tp8414
aaa(lp8415
(I1
F0.2796
tp8416
a(F182.0
F623.0
tp8417
a(F70.0
F1059.0
tp8418
aaaaa(lp8419
(I1
F0.1132
tp8420
a(lp8421
(I11
F0.0569
tp8422
a(lp8423
(I1
F0.029
tp8424
a(lp8425
(I5
F0.0523
tp8426
a(lp8427
(I9
F0.0132
tp8428
a(lp8429
(I5
F0.0057
tp8430
a(lp8431
(I15
F0.0493
tp8432
a(lp8433
(I14
F0.1507
tp8434
a(lp8435
(I0
F0.2832
tp8436
a(F752.0
F12.0
tp8437
a(F865.0
F2.0
tp8438
aa(lp8439
(I1
F-0.0164
tp8440
a(F877.0
F0.0
tp8441
a(F809.0
F3.0
tp8442
aaa(F954.0
F27.0
tp8443
aa(lp8444
(I15
F0.027
tp8445
a(F1208.0
F16.0
tp8446
a(F753.0
F36.0
tp8447
aaa(lp8448
(I7
F0.0112
tp8449
a(F1073.0
F18.0
tp8450
a(lp8451
(I6
F0.6242
tp8452
a(F828.0
F37.0
tp8453
a(F743.0
F52.0
tp8454
aaaa(F704.0
F95.0
tp8455
aa(lp8456
(I13
F0.0546
tp8457
a(lp8458
(I7
F0.0624
tp8459
a(lp8460
(I13
F0.0263
tp8461
a(F1371.0
F52.0
tp8462
a(F1314.0
F86.0
tp8463
aa(F792.0
F87.0
tp8464
aa(lp8465
(I6
F0.2578
tp8466
a(F791.0
F92.0
tp8467
a(F618.0
F172.0
tp8468
aaaa(lp8469
(I1
F0.0673
tp8470
a(lp8471
(I7
F0.0561
tp8472
a(lp8473
(I9
F0.0444
tp8474
a(F836.0
F44.0
tp8475
a(lp8476
(I11
F0.1203
tp8477
a(F1197.0
F138.0
tp8478
a(F729.0
F132.0
tp8479
aaa(lp8480
(I6
F0.293
tp8481
a(F751.0
F90.0
tp8482
a(F592.0
F207.0
tp8483
aaa(lp8484
(I6
F0.2249
tp8485
a(lp8486
(I11
F0.139
tp8487
a(lp8488
(I9
F0.0987
tp8489
a(F715.0
F88.0
tp8490
a(F665.0
F121.0
tp8491
aa(F632.0
F192.0
tp8492
aa(lp8493
(I13
F0.0863
tp8494
a(F849.0
F181.0
tp8495
a(F791.0
F464.0
tp8496
aaaaa(lp8497
(I6
F0.5942
tp8498
a(lp8499
(I10
F0.1186
tp8500
a(lp8501
(I14
F0.0412
tp8502
a(lp8503
(I11
F0.1178
tp8504
a(F1210.0
F197.0
tp8505
a(lp8506
(I7
F0.1724
tp8507
a(F940.0
F238.0
tp8508
a(F690.0
F120.0
tp8509
aaa(F546.0
F320.0
tp8510
aa(lp8511
(I8
F1.1102
tp8512
a(lp8513
(I9
F0.149
tp8514
a(F1013.0
F422.0
tp8515
a(F530.0
F547.0
tp8516
aa(F317.0
F467.0
tp8517
aaa(lp8518
(I13
F0.1702
tp8519
a(lp8520
(I1
F0.145
tp8521
a(F631.0
F370.0
tp8522
a(F501.0
F559.0
tp8523
aa(lp8524
(I5
F0.2302
tp8525
a(F237.0
F601.0
tp8526
a(F115.0
F1236.0
tp8527
aaaaa(lp8528
(I13
F0.127
tp8529
a(lp8530
(I3
F0.068
tp8531
a(lp8532
(I3
F0.0174
tp8533
a(lp8534
(I3
F0.0079
tp8535
a(lp8536
(I13
F0.0589
tp8537
a(lp8538
(I15
F0.062
tp8539
a(lp8540
(I11
F-0.0123
tp8541
a(lp8542
(I0
F0.6301
tp8543
a(lp8544
(I11
F-0.0376
tp8545
a(F875.0
F18.0
tp8546
a(F806.0
F6.0
tp8547
aa(F1033.0
F2.0
tp8548
aa(lp8549
(I12
F0.0713
tp8550
a(F853.0
F42.0
tp8551
a(lp8552
(I12
F0.8797
tp8553
a(F884.0
F20.0
tp8554
a(F837.0
F12.0
tp8555
aaaa(F1404.0
F68.0
tp8556
aa(F705.0
F76.0
tp8557
aa(lp8558
(I9
F0.0141
tp8559
a(F826.0
F24.0
tp8560
a(F790.0
F67.0
tp8561
aaa(lp8562
(I7
F0.0629
tp8563
a(lp8564
(I13
F0.0437
tp8565
a(lp8566
(I8
F0.9275
tp8567
a(lp8568
(I9
F0.0123
tp8569
a(F1007.0
F28.0
tp8570
a(F1379.0
F61.0
tp8571
aa(F1138.0
F82.0
tp8572
aa(lp8573
(I11
F0.0677
tp8574
a(F1264.0
F93.0
tp8575
a(F700.0
F107.0
tp8576
aaa(lp8577
(I0
F0.332
tp8578
a(F1093.0
F103.0
tp8579
a(F744.0
F170.0
tp8580
aaaa(lp8581
(I12
F0.1421
tp8582
a(lp8583
(I3
F0.14
tp8584
a(lp8585
(I9
F0.084
tp8586
a(F1240.0
F153.0
tp8587
a(F1205.0
F249.0
tp8588
aa(lp8589
(I9
F0.0864
tp8590
a(F720.0
F126.0
tp8591
a(F712.0
F294.0
tp8592
aaa(lp8593
(I15
F0.081
tp8594
a(lp8595
(I5
F0.1059
tp8596
a(lp8597
(I9
F0.0834
tp8598
a(F1157.0
F158.0
tp8599
a(F716.0
F204.0
tp8600
aa(F671.0
F358.0
tp8601
aa(lp8602
(I15
F0.106
tp8603
a(F624.0
F293.0
tp8604
a(F521.0
F361.0
tp8605
aaaaa(lp8606
(I4
F0.1674
tp8607
a(lp8608
(I8
F0.0281
tp8609
a(lp8610
(I3
F0.1503
tp8611
a(lp8612
(I1
F0.0893
tp8613
a(F773.0
F57.0
tp8614
a(F702.0
F97.0
tp8615
aa(F956.0
F261.0
tp8616
aa(F686.0
F510.0
tp8617
aa(lp8618
(I5
F0.1833
tp8619
a(lp8620
(I12
F0.7081
tp8621
a(F535.0
F340.0
tp8622
a(lp8623
(I13
F0.1543
tp8624
a(F436.0
F375.0
tp8625
a(F326.0
F540.0
tp8626
aaa(lp8627
(I11
F0.2226
tp8628
a(F371.0
F872.0
tp8629
a(F141.0
F1403.0
tp8630
aaaaa(lp8631
(I3
F0.1352
tp8632
a(lp8633
(I9
F0.0681
tp8634
a(lp8635
(I5
F0.0532
tp8636
a(lp8637
(I6
F1.7465
tp8638
a(lp8639
(I3
F0.0167
tp8640
a(lp8641
(I1
F0.0136
tp8642
a(lp8643
(I15
F0.0385
tp8644
a(lp8645
(I9
F0.0135
tp8646
a(lp8647
(I3
F-0.0172
tp8648
a(lp8649
(I3
F-0.0438
tp8650
a(F788.0
F6.0
tp8651
a(F1.167
F1.0
tp8652
aa(lp8653
(I12
F0.5838
tp8654
a(F1056.0
F3.0
tp8655
a(F791.0
F11.0
tp8656
aaa(F875.0
F25.0
tp8657
aa(lp8658
(I11
F-0.0013
tp8659
a(F1183.0
F35.0
tp8660
a(F759.0
F40.0
tp8661
aaa(F1005.0
F32.0
tp8662
aa(lp8663
(I4
F1.0614
tp8664
a(lp8665
(I9
F0.0066
tp8666
a(F904.0
F25.0
tp8667
a(lp8668
(I7
F0.045
tp8669
a(lp8670
(I13
F0.0365
tp8671
a(F1092.0
F52.0
tp8672
a(F739.0
F56.0
tp8673
aa(F735.0
F87.0
tp8674
aaa(F997.0
F37.0
tp8675
aaa(F741.0
F58.0
tp8676
aa(lp8677
(I13
F0.0821
tp8678
a(lp8679
(I6
F0.3927
tp8680
a(lp8681
(I8
F0.0511
tp8682
a(F906.0
F72.0
tp8683
a(F748.0
F89.0
tp8684
aa(lp8685
(I12
F0.8741
tp8686
a(F656.0
F114.0
tp8687
a(F789.0
F97.0
tp8688
aaa(F592.0
F200.0
tp8689
aaa(lp8690
(I4
F0.2493
tp8691
a(lp8692
(I14
F0.3714
tp8693
a(lp8694
(I8
F0.1729
tp8695
a(lp8696
(I5
F0.0825
tp8697
a(lp8698
(I5
F0.0377
tp8699
a(F768.0
F31.0
tp8700
a(F809.0
F72.0
tp8701
aa(F1358.0
F209.0
tp8702
aa(F777.0
F189.0
tp8703
aa(F858.0
F281.0
tp8704
aa(lp8705
(I5
F0.1091
tp8706
a(lp8707
(I11
F0.0971
tp8708
a(F1242.0
F291.0
tp8709
a(F896.0
F315.0
tp8710
aa(F837.0
F726.0
tp8711
aaaa(lp8712
(I6
F0.5326
tp8713
a(lp8714
(I8
F0.3598
tp8715
a(lp8716
(I6
F0.0041
tp8717
a(lp8718
(I11
F0.1512
tp8719
a(F1316.0
F229.0
tp8720
a(F1001.0
F342.0
tp8721
aa(F714.0
F380.0
tp8722
aa(F726.0
F827.0
tp8723
aa(lp8724
(I7
F0.2231
tp8725
a(lp8726
(I7
F0.1365
tp8727
a(F466.0
F367.0
tp8728
a(F480.0
F929.0
tp8729
aa(F140.0
F1321.0
tp8730
aaaa(lp8731
(I9
F0.1279
tp8732
a(lp8733
(I1
F0.062
tp8734
a(lp8735
(I7
F0.0563
tp8736
a(lp8737
(I9
F0.0591
tp8738
a(lp8739
(I3
F0.0135
tp8740
a(lp8741
(I7
F0.0105
tp8742
a(lp8743
(I4
F0.0396
tp8744
a(F1534.0
F31.0
tp8745
a(lp8746
(I10
F0.7549
tp8747
a(lp8748
(I9
F-0.0132
tp8749
a(F939.0
F3.0
tp8750
a(F801.0
F9.0
tp8751
aa(F990.0
F2.0
tp8752
aaa(lp8753
(I1
F0.0004
tp8754
a(F1258.0
F57.0
tp8755
a(F891.0
F24.0
tp8756
aaa(lp8757
(I9
F0.0061
tp8758
a(F1201.0
F42.0
tp8759
a(lp8760
(I5
F0.0465
tp8761
a(lp8762
(I6
F0.4041
tp8763
a(F1153.0
F78.0
tp8764
a(F1361.0
F56.0
tp8765
aa(F722.0
F58.0
tp8766
aaaa(F1325.0
F173.0
tp8767
aa(lp8768
(I14
F0.4167
tp8769
a(lp8770
(I5
F0.043
tp8771
a(F1169.0
F42.0
tp8772
a(F852.0
F92.0
tp8773
aa(F1291.0
F260.0
tp8774
aaa(lp8775
(I7
F0.0952
tp8776
a(lp8777
(I13
F0.0757
tp8778
a(lp8779
(I11
F0.098
tp8780
a(lp8781
(I15
F0.0386
tp8782
a(F1391.0
F110.0
tp8783
a(F1069.0
F168.0
tp8784
aa(F673.0
F161.0
tp8785
aa(lp8786
(I15
F0.0398
tp8787
a(F592.0
F221.0
tp8788
a(lp8789
(I1
F0.0973
tp8790
a(F749.0
F172.0
tp8791
a(F601.0
F226.0
tp8792
aaaa(lp8793
(I8
F0.3328
tp8794
a(lp8795
(I6
F0.0062
tp8796
a(F1049.0
F154.0
tp8797
a(F733.0
F283.0
tp8798
aa(lp8799
(I5
F0.1198
tp8800
a(F612.0
F306.0
tp8801
a(F415.0
F408.0
tp8802
aaaaa(lp8803
(I12
F0.69
tp8804
a(lp8805
(I10
F0.0219
tp8806
a(lp8807
(I7
F0.0726
tp8808
a(F791.0
F87.0
tp8809
a(lp8810
(I5
F0.1389
tp8811
a(F769.0
F108.0
tp8812
a(F1099.0
F340.0
tp8813
aaa(lp8814
(I1
F0.1795
tp8815
a(lp8816
(I5
F0.1112
tp8817
a(F662.0
F218.0
tp8818
a(F554.0
F410.0
tp8819
aa(F310.0
F476.0
tp8820
aaa(lp8821
(I1
F0.2099
tp8822
a(lp8823
(I5
F0.1393
tp8824
a(F518.0
F384.0
tp8825
a(F442.0
F903.0
tp8826
aa(lp8827
(I5
F0.2877
tp8828
a(F157.0
F621.0
tp8829
a(F72.0
F1032.0
tp8830
aaaaa(lp8831
(I13
F0.136
tp8832
a(lp8833
(I15
F0.0597
tp8834
a(lp8835
(I3
F0.0723
tp8836
a(lp8837
(I13
F0.0382
tp8838
a(lp8839
(I13
F0.0086
tp8840
a(lp8841
(I9
F0.0132
tp8842
a(lp8843
(I14
F0.1805
tp8844
a(lp8845
(I2
F0.3841
tp8846
a(F1446.0
F42.0
tp8847
a(F1197.0
F19.0
tp8848
aa(lp8849
(I1
F-0.0185
tp8850
a(F882.0
F3.0
tp8851
a(F1260.0
F13.0
tp8852
aaa(F775.0
F31.0
tp8853
aa(lp8854
(I11
F0.0159
tp8855
a(lp8856
(I10
F0.5574
tp8857
a(F863.0
F20.0
tp8858
a(F812.0
F7.0
tp8859
aa(lp8860
(I6
F0.6816
tp8861
a(F1264.0
F54.0
tp8862
a(F743.0
F53.0
tp8863
aaaa(lp8864
(I7
F0.0565
tp8865
a(lp8866
(I11
F0.0602
tp8867
a(lp8868
(I11
F0.0273
tp8869
a(F703.0
F57.0
tp8870
a(F869.0
F42.0
tp8871
aa(F776.0
F89.0
tp8872
aa(F756.0
F125.0
tp8873
aaa(lp8874
(I8
F0.3171
tp8875
a(lp8876
(I5
F0.1303
tp8877
a(lp8878
(I11
F0.1144
tp8879
a(F1166.0
F93.0
tp8880
a(F664.0
F142.0
tp8881
aa(F614.0
F167.0
tp8882
aa(lp8883
(I11
F0.1098
tp8884
a(F1027.0
F229.0
tp8885
a(F538.0
F271.0
tp8886
aaaa(lp8887
(I5
F0.0602
tp8888
a(lp8889
(I5
F0.0159
tp8890
a(lp8891
(I9
F0.005
tp8892
a(F897.0
F14.0
tp8893
a(F827.0
F78.0
tp8894
aa(lp8895
(I0
F0.0946
tp8896
a(F995.0
F92.0
tp8897
a(F923.0
F177.0
tp8898
aaa(lp8899
(I6
F0.007
tp8900
a(lp8901
(I9
F0.1076
tp8902
a(F1067.0
F139.0
tp8903
a(F703.0
F189.0
tp8904
aa(lp8905
(I13
F0.0985
tp8906
a(lp8907
(I5
F0.0934
tp8908
a(F974.0
F277.0
tp8909
a(F663.0
F274.0
tp8910
aa(lp8911
(I7
F0.1147
tp8912
a(F695.0
F293.0
tp8913
a(F623.0
F444.0
tp8914
aaaaaa(lp8915
(I8
F0.1909
tp8916
a(lp8917
(I12
F0.0335
tp8918
a(lp8919
(I1
F0.1518
tp8920
a(F1176.0
F140.0
tp8921
a(F960.0
F283.0
tp8922
aa(F543.0
F376.0
tp8923
aa(lp8924
(I1
F0.226
tp8925
a(lp8926
(I7
F0.1336
tp8927
a(F786.0
F587.0
tp8928
a(lp8929
(I12
F1.4127
tp8930
a(F364.0
F562.0
tp8931
a(F190.0
F642.0
tp8932
aaa(lp8933
(I6
F1.7658
tp8934
a(F130.0
F661.0
tp8935
a(F47.0
F857.0
tp8936
aaaaa(lp8937
(I10
F2.258
tp8938
a(lp8939
(I9
F0.0923
tp8940
a(lp8941
(I3
F0.0718
tp8942
a(lp8943
(I14
F1.8218
tp8944
a(lp8945
(I5
F0.0847
tp8946
a(lp8947
(I13
F0.0595
tp8948
a(lp8949
(I3
F0.0158
tp8950
a(lp8951
(I9
F0.0176
tp8952
a(lp8953
(I7
F0.029
tp8954
a(lp8955
(I1
F-0.0083
tp8956
a(lp8957
(I0
F0.0013
tp8958
a(F963.0
F9.0
tp8959
a(lp8960
(I14
F0.1312
tp8961
a(F841.0
F0.0
tp8962
a(F789.0
F2.0
tp8963
aaa(lp8964
(I5
F0.0038
tp8965
a(F869.0
F13.0
tp8966
a(F789.0
F23.0
tp8967
aaa(F1403.0
F45.0
tp8968
aa(F1487.0
F68.0
tp8969
aa(lp8970
(I5
F0.019
tp8971
a(F1194.0
F38.0
tp8972
a(lp8973
(I4
F1.0845
tp8974
a(lp8975
(I15
F0.042
tp8976
a(lp8977
(I4
F0.3142
tp8978
a(F790.0
F26.0
tp8979
a(F848.0
F60.0
tp8980
aa(F952.0
F97.0
tp8981
aa(F1017.0
F41.0
tp8982
aaaa(lp8983
(I15
F0.0752
tp8984
a(F1148.0
F94.0
tp8985
a(F677.0
F123.0
tp8986
aaa(F771.0
F157.0
tp8987
aa(F1188.0
F128.0
tp8988
aa(lp8989
(I5
F0.1342
tp8990
a(lp8991
(I8
F0.1798
tp8992
a(lp8993
(I9
F0.0603
tp8994
a(F935.0
F109.0
tp8995
a(F688.0
F105.0
tp8996
aa(lp8997
(I15
F0.0593
tp8998
a(F985.0
F152.0
tp8999
a(F655.0
F170.0
tp9000
aaa(F717.0
F294.0
tp9001
aaa(lp9002
(I4
F0.2757
tp9003
a(lp9004
(I6
F0.0075
tp9005
a(lp9006
(I6
F-0.0057
tp9007
a(F564.0
F217.0
tp9008
a(lp9009
(I1
F0.1419
tp9010
a(lp9011
(I9
F0.1581
tp9012
a(lp9013
(I15
F0.1023
tp9014
a(F944.0
F144.0
tp9015
a(F768.0
F55.0
tp9016
aa(F668.0
F111.0
tp9017
aa(F1277.0
F307.0
tp9018
aaa(lp9019
(I1
F0.1505
tp9020
a(F1067.0
F355.0
tp9021
a(F442.0
F366.0
tp9022
aaa(lp9023
(I5
F0.163
tp9024
a(lp9025
(I5
F0.1096
tp9026
a(F1144.0
F418.0
tp9027
a(lp9028
(I13
F0.127
tp9029
a(F527.0
F323.0
tp9030
a(F463.0
F487.0
tp9031
aaa(lp9032
(I6
F0.5615
tp9033
a(F345.0
F410.0
tp9034
a(lp9035
(I13
F0.212
tp9036
a(F243.0
F587.0
tp9037
a(F96.0
F704.0
tp9038
aaaaaa(lp9039
(I13
F0.1734
tp9040
a(F512.0
F348.0
tp9041
a(F108.0
F1000.0
tp9042
aaa(lp9043
(I13
F0.1248
tp9044
a(lp9045
(I3
F0.068
tp9046
a(lp9047
(I1
F0.0279
tp9048
a(lp9049
(I9
F0.0366
tp9050
a(lp9051
(I9
F0.0056
tp9052
a(lp9053
(I15
F0.0408
tp9054
a(lp9055
(I4
F0.8038
tp9056
a(lp9057
(I5
F0.0053
tp9058
a(lp9059
(I9
F-0.0279
tp9060
a(F859.0
F20.0
tp9061
a(F1204.0
F4.0
tp9062
aa(F758.0
F25.0
tp9063
aa(F1387.0
F8.0
tp9064
aa(lp9065
(I14
F0.3147
tp9066
a(F771.0
F17.0
tp9067
a(F742.0
F42.0
tp9068
aaa(lp9069
(I15
F0.024
tp9070
a(F1471.0
F37.0
tp9071
a(F1392.0
F94.0
tp9072
aaa(lp9073
(I15
F0.054
tp9074
a(F1051.0
F88.0
tp9075
a(F714.0
F110.0
tp9076
aaa(lp9077
(I5
F0.067
tp9078
a(lp9079
(I15
F0.0412
tp9080
a(lp9081
(I14
F0.0827
tp9082
a(F1239.0
F89.0
tp9083
a(F1304.0
F39.0
tp9084
aa(lp9085
(I4
F0.4169
tp9086
a(F1138.0
F115.0
tp9087
a(F970.0
F152.0
tp9088
aaa(F1137.0
F206.0
tp9089
aaa(lp9090
(I13
F0.0745
tp9091
a(lp9092
(I1
F0.1142
tp9093
a(lp9094
(I8
F0.1372
tp9095
a(F1029.0
F94.0
tp9096
a(F1275.0
F268.0
tp9097
aa(lp9098
(I4
F0.1429
tp9099
a(F916.0
F198.0
tp9100
a(F563.0
F230.0
tp9101
aaa(lp9102
(I14
F0.0119
tp9103
a(lp9104
(I4
F0.0216
tp9105
a(F970.0
F163.0
tp9106
a(F617.0
F232.0
tp9107
aa(lp9108
(I3
F0.1219
tp9109
a(lp9110
(I6
F0.628
tp9111
a(F607.0
F185.0
tp9112
a(F749.0
F309.0
tp9113
aa(F696.0
F467.0
tp9114
aaaaa(lp9115
(I6
F0.3922
tp9116
a(lp9117
(I4
F0.023
tp9118
a(lp9119
(I14
F0.0382
tp9120
a(lp9121
(I3
F0.1133
tp9122
a(F940.0
F71.0
tp9123
a(F1313.0
F254.0
tp9124
aa(F517.0
F252.0
tp9125
aa(lp9126
(I11
F0.1767
tp9127
a(F818.0
F452.0
tp9128
a(F308.0
F499.0
tp9129
aaa(lp9130
(I7
F0.1973
tp9131
a(lp9132
(I1
F0.157
tp9133
a(F651.0
F583.0
tp9134
a(F362.0
F719.0
tp9135
aa(lp9136
(I13
F0.2526
tp9137
a(F167.0
F659.0
tp9138
a(F72.0
F1072.0
tp9139
aaaaa(lp9140
(I12
F2.4283
tp9141
a(lp9142
(I12
F0.0078
tp9143
a(lp9144
(I1
F0.0902
tp9145
a(lp9146
(I9
F0.0398
tp9147
a(lp9148
(I1
F0.033
tp9149
a(lp9150
(I10
F0.1422
tp9151
a(lp9152
(I13
F0.0061
tp9153
a(lp9154
(I5
F-0.0081
tp9155
a(F1013.0
F11.0
tp9156
a(F750.0
F20.0
tp9157
aa(F822.0
F35.0
tp9158
aa(F805.0
F11.0
tp9159
aa(F977.0
F59.0
tp9160
aa(lp9161
(I3
F0.0412
tp9162
a(F1220.0
F72.0
tp9163
a(lp9164
(I9
F0.0926
tp9165
a(F739.0
F84.0
tp9166
a(F865.0
F114.0
tp9167
aaaa(lp9168
(I6
F0.0022
tp9169
a(lp9170
(I15
F0.0654
tp9171
a(lp9172
(I15
F0.0304
tp9173
a(F832.0
F174.0
tp9174
a(F763.0
F110.0
tp9175
aa(lp9176
(I11
F0.1289
tp9177
a(F708.0
F104.0
tp9178
a(F1001.0
F257.0
tp9179
aaa(F880.0
F351.0
tp9180
aaa(lp9181
(I13
F0.1153
tp9182
a(lp9183
(I13
F0.06
tp9184
a(lp9185
(I5
F0.0755
tp9186
a(lp9187
(I1
F0.0272
tp9188
a(lp9189
(I5
F0.0039
tp9190
a(lp9191
(I0
F0.0003
tp9192
a(F792.0
F28.0
tp9193
a(lp9194
(I9
F-0.0002
tp9195
a(F1582.0
F6.0
tp9196
a(F768.0
F14.0
tp9197
aaa(lp9198
(I13
F0.0304
tp9199
a(lp9200
(I12
F0.9751
tp9201
a(F1147.0
F20.0
tp9202
a(F786.0
F25.0
tp9203
aa(F812.0
F46.0
tp9204
aaa(lp9205
(I11
F0.0681
tp9206
a(lp9207
(I13
F0.0389
tp9208
a(lp9209
(I2
F0.661
tp9210
a(F748.0
F48.0
tp9211
a(F872.0
F39.0
tp9212
aa(F1085.0
F85.0
tp9213
aa(F666.0
F124.0
tp9214
aaa(F701.0
F216.0
tp9215
aa(lp9216
(I3
F0.0928
tp9217
a(lp9218
(I15
F0.0806
tp9219
a(lp9220
(I7
F0.0642
tp9221
a(F1099.0
F153.0
tp9222
a(F648.0
F146.0
tp9223
aa(F806.0
F256.0
tp9224
aa(lp9225
(I15
F0.0827
tp9226
a(F982.0
F326.0
tp9227
a(F514.0
F334.0
tp9228
aaaa(lp9229
(I3
F0.1454
tp9230
a(lp9231
(I4
F0.6162
tp9232
a(F1071.0
F409.0
tp9233
a(F646.0
F533.0
tp9234
aa(lp9235
(I7
F0.2131
tp9236
a(lp9237
(I0
F0.5166
tp9238
a(F465.0
F429.0
tp9239
a(F454.0
F803.0
tp9240
aa(F149.0
F798.0
tp9241
aaaaa(lp9242
(I9
F0.1625
tp9243
a(F491.0
F279.0
tp9244
a(F149.0
F1133.0
tp9245
aaa(lp9246
(I9
F0.1308
tp9247
a(lp9248
(I13
F0.0727
tp9249
a(lp9250
(I15
F0.0299
tp9251
a(lp9252
(I3
F0.0678
tp9253
a(lp9254
(I7
F0.0064
tp9255
a(lp9256
(I5
F0.0085
tp9257
a(lp9258
(I13
F-0.0018
tp9259
a(lp9260
(I13
F-0.03
tp9261
a(F812.0
F5.0
tp9262
a(F1.265
F1.0
tp9263
aa(F890.0
F18.0
tp9264
aa(F1252.0
F66.0
tp9265
aa(lp9266
(I9
F0.037
tp9267
a(lp9268
(I3
F0.029
tp9269
a(lp9270
(I12
F0.1391
tp9271
a(F843.0
F37.0
tp9272
a(F1416.0
F23.0
tp9273
aa(F839.0
F40.0
tp9274
aa(F742.0
F62.0
tp9275
aaa(lp9276
(I2
F0.4091
tp9277
a(F734.0
F93.0
tp9278
a(F760.0
F131.0
tp9279
aaa(lp9280
(I11
F0.0191
tp9281
a(lp9282
(I0
F0.2941
tp9283
a(lp9284
(I13
F0.0131
tp9285
a(F1248.0
F23.0
tp9286
a(F783.0
F40.0
tp9287
aa(F1187.0
F108.0
tp9288
aa(lp9289
(I11
F0.0879
tp9290
a(lp9291
(I1
F0.0846
tp9292
a(lp9293
(I5
F0.06
tp9294
a(lp9295
(I5
F0.0307
tp9296
a(F1122.0
F103.0
tp9297
a(F1324.0
F86.0
tp9298
aa(F803.0
F110.0
tp9299
aa(F662.0
F130.0
tp9300
aa(F802.0
F166.0
tp9301
aaaa(lp9302
(I4
F0.0993
tp9303
a(lp9304
(I14
F0.2185
tp9305
a(lp9306
(I9
F0.1099
tp9307
a(lp9308
(I9
F0.0864
tp9309
a(F814.0
F69.0
tp9310
a(F751.0
F92.0
tp9311
aa(F687.0
F123.0
tp9312
aa(F631.0
F210.0
tp9313
aa(lp9314
(I6
F1.7194
tp9315
a(lp9316
(I1
F0.1321
tp9317
a(lp9318
(I9
F0.0841
tp9319
a(F1070.0
F274.0
tp9320
a(lp9321
(I15
F0.082
tp9322
a(F673.0
F186.0
tp9323
a(F570.0
F295.0
tp9324
aaa(F526.0
F393.0
tp9325
aa(F481.0
F320.0
tp9326
aaaa(lp9327
(I6
F0.4546
tp9328
a(lp9329
(I0
F0.0114
tp9330
a(lp9331
(I10
F0.0549
tp9332
a(lp9333
(I13
F0.1511
tp9334
a(F716.0
F145.0
tp9335
a(lp9336
(I3
F0.1699
tp9337
a(F722.0
F69.0
tp9338
a(F660.0
F124.0
tp9339
aaa(F544.0
F273.0
tp9340
aa(lp9341
(I5
F0.1443
tp9342
a(F883.0
F384.0
tp9343
a(F485.0
F731.0
tp9344
aaa(lp9345
(I5
F0.2012
tp9346
a(lp9347
(I13
F0.1502
tp9348
a(F456.0
F421.0
tp9349
a(F397.0
F695.0
tp9350
aa(lp9351
(I13
F0.2741
tp9352
a(F141.0
F654.0
tp9353
a(F68.0
F1001.0
tp9354
aaaaa(lp9355
(I7
F0.1324
tp9356
a(lp9357
(I5
F0.0844
tp9358
a(lp9359
(I13
F0.0442
tp9360
a(lp9361
(I3
F0.083
tp9362
a(lp9363
(I15
F-0.0003
tp9364
a(lp9365
(I9
F0.0045
tp9366
a(lp9367
(I6
F0.1288
tp9368
a(F1350.0
F17.0
tp9369
a(F1339.0
F4.0
tp9370
aa(F1201.0
F47.0
tp9371
aa(lp9372
(I3
F0.0345
tp9373
a(lp9374
(I3
F0.0074
tp9375
a(lp9376
(I2
F0.0735
tp9377
a(lp9378
(I7
F0.0129
tp9379
a(F874.0
F3.0
tp9380
a(F901.0
F23.0
tp9381
aa(lp9382
(I14
F0.7488
tp9383
a(F995.0
F8.0
tp9384
a(F729.0
F35.0
tp9385
aaa(lp9386
(I2
F0.837
tp9387
a(F1376.0
F65.0
tp9388
a(F795.0
F16.0
tp9389
aaa(lp9390
(I11
F0.042
tp9391
a(F1121.0
F62.0
tp9392
a(F702.0
F69.0
tp9393
aaaa(F857.0
F173.0
tp9394
aa(lp9395
(I0
F0.0931
tp9396
a(lp9397
(I11
F0.1266
tp9398
a(lp9399
(I12
F0.1674
tp9400
a(F1255.0
F108.0
tp9401
a(F756.0
F52.0
tp9402
aa(F848.0
F160.0
tp9403
aa(lp9404
(I11
F0.0982
tp9405
a(lp9406
(I7
F0.0696
tp9407
a(lp9408
(I3
F0.0366
tp9409
a(F731.0
F68.0
tp9410
a(F1330.0
F187.0
tp9411
aa(F707.0
F145.0
tp9412
aa(F748.0
F245.0
tp9413
aaaa(lp9414
(I8
F0.346
tp9415
a(lp9416
(I11
F0.1577
tp9417
a(lp9418
(I1
F0.1137
tp9419
a(lp9420
(I11
F0.0802
tp9421
a(F777.0
F87.0
tp9422
a(F691.0
F120.0
tp9423
aa(lp9424
(I0
F0.0175
tp9425
a(F869.0
F173.0
tp9426
a(F590.0
F182.0
tp9427
aaa(F528.0
F260.0
tp9428
aa(lp9429
(I11
F0.1692
tp9430
a(lp9431
(I2
F1.5243
tp9432
a(lp9433
(I13
F0.1046
tp9434
a(F907.0
F265.0
tp9435
a(F799.0
F408.0
tp9436
aa(F508.0
F287.0
tp9437
aa(F332.0
F484.0
tp9438
aaaa(lp9439
(I6
F0.3268
tp9440
a(lp9441
(I14
F0.0482
tp9442
a(lp9443
(I1
F0.1315
tp9444
a(F1160.0
F79.0
tp9445
a(F1205.0
F281.0
tp9446
aa(F566.0
F424.0
tp9447
aa(lp9448
(I9
F0.238
tp9449
a(lp9450
(I1
F0.1245
tp9451
a(F468.0
F325.0
tp9452
a(lp9453
(I0
F0.7907
tp9454
a(F381.0
F503.0
tp9455
a(F387.0
F895.0
tp9456
aaa(F135.0
F1282.0
tp9457
aaaa(lp9458
(I3
F0.1219
tp9459
a(lp9460
(I1
F0.0572
tp9461
a(lp9462
(I13
F0.0546
tp9463
a(lp9464
(I9
F0.0404
tp9465
a(lp9466
(I5
F0.0489
tp9467
a(lp9468
(I7
F0.013
tp9469
a(lp9470
(I13
F0.0137
tp9471
a(lp9472
(I10
F0.0001
tp9473
a(F1385.0
F28.0
tp9474
a(lp9475
(I0
F0.2727
tp9476
a(F918.0
F9.0
tp9477
a(lp9478
(I13
F-0.0139
tp9479
a(F790.0
F0.0
tp9480
a(F922.0
F6.0
tp9481
aaaa(F1126.0
F33.0
tp9482
aa(lp9483
(I3
F0.029
tp9484
a(lp9485
(I9
F0.0156
tp9486
a(lp9487
(I1
F-0.0276
tp9488
a(F761.0
F31.0
tp9489
a(lp9490
(I0
F0.239
tp9491
a(F772.0
F25.0
tp9492
a(F933.0
F13.0
tp9493
aaa(F1032.0
F52.0
tp9494
aa(F1091.0
F57.0
tp9495
aaa(F724.0
F67.0
tp9496
aa(lp9497
(I9
F0.0574
tp9498
a(F1088.0
F87.0
tp9499
a(F726.0
F98.0
tp9500
aaa(lp9501
(I8
F0.0284
tp9502
a(F1454.0
F102.0
tp9503
a(lp9504
(I5
F0.0606
tp9505
a(F1327.0
F223.0
tp9506
a(F624.0
F193.0
tp9507
aaaa(lp9508
(I15
F0.0926
tp9509
a(lp9510
(I12
F0.2996
tp9511
a(lp9512
(I1
F0.0991
tp9513
a(lp9514
(I9
F0.0703
tp9515
a(F854.0
F66.0
tp9516
a(F696.0
F101.0
tp9517
aa(F900.0
F140.0
tp9518
aa(lp9519
(I13
F0.082
tp9520
a(lp9521
(I13
F0.0552
tp9522
a(F774.0
F85.0
tp9523
a(F941.0
F187.0
tp9524
aa(F978.0
F343.0
tp9525
aaa(lp9526
(I6
F0.2583
tp9527
a(F1253.0
F222.0
tp9528
a(F843.0
F624.0
tp9529
aaaa(lp9530
(I12
F0.7279
tp9531
a(lp9532
(I8
F0.0328
tp9533
a(lp9534
(I15
F0.0654
tp9535
a(lp9536
(I11
F0.1164
tp9537
a(F776.0
F124.0
tp9538
a(F693.0
F139.0
tp9539
aa(lp9540
(I5
F0.1584
tp9541
a(F750.0
F201.0
tp9542
a(F842.0
F302.0
tp9543
aaa(lp9544
(I13
F0.1358
tp9545
a(lp9546
(I11
F0.1196
tp9547
a(F610.0
F193.0
tp9548
a(F537.0
F316.0
tp9549
aa(F490.0
F742.0
tp9550
aaa(lp9551
(I13
F0.1806
tp9552
a(lp9553
(I5
F0.1444
tp9554
a(F501.0
F395.0
tp9555
a(F377.0
F552.0
tp9556
aa(lp9557
(I11
F0.2522
tp9558
a(F245.0
F865.0
tp9559
a(F90.0
F1016.0
tp9560
aaaaa(lp9561
(I9
F0.1204
tp9562
a(lp9563
(I5
F0.08
tp9564
a(lp9565
(I13
F0.0517
tp9566
a(lp9567
(I11
F0.0701
tp9568
a(lp9569
(I5
F0.0162
tp9570
a(lp9571
(I1
F-0.0126
tp9572
a(lp9573
(I0
F0.0004
tp9574
a(F1526.0
F24.0
tp9575
a(lp9576
(I1
F-0.0344
tp9577
a(F804.0
F0.0
tp9578
a(F1068.0
F6.0
tp9579
aaa(lp9580
(I2
F1.014
tp9581
a(lp9582
(I11
F0.0146
tp9583
a(lp9584
(I15
F0.0159
tp9585
a(F1012.0
F15.0
tp9586
a(F791.0
F32.0
tp9587
aa(F933.0
F50.0
tp9588
aa(F935.0
F15.0
tp9589
aaa(lp9590
(I0
F0.3556
tp9591
a(lp9592
(I9
F0.0295
tp9593
a(F1312.0
F38.0
tp9594
a(F754.0
F43.0
tp9595
aa(lp9596
(I11
F0.0246
tp9597
a(lp9598
(I13
F0.0188
tp9599
a(F879.0
F46.0
tp9600
a(F713.0
F70.0
tp9601
aa(F1369.0
F66.0
tp9602
aaaa(lp9603
(I0
F0.1591
tp9604
a(F779.0
F52.0
tp9605
a(F735.0
F101.0
tp9606
aaa(lp9607
(I4
F0.2799
tp9608
a(lp9609
(I0
F0.0067
tp9610
a(lp9611
(I3
F0.0437
tp9612
a(F832.0
F39.0
tp9613
a(F713.0
F74.0
tp9614
aa(F691.0
F113.0
tp9615
aa(lp9616
(I7
F0.0537
tp9617
a(F884.0
F125.0
tp9618
a(F985.0
F222.0
tp9619
aaaa(lp9620
(I4
F0.0993
tp9621
a(lp9622
(I3
F0.0918
tp9623
a(F706.0
F83.0
tp9624
a(lp9625
(I7
F0.1009
tp9626
a(F685.0
F108.0
tp9627
a(F695.0
F183.0
tp9628
aaa(lp9629
(I6
F0.3672
tp9630
a(lp9631
(I8
F0.3231
tp9632
a(F716.0
F189.0
tp9633
a(F587.0
F229.0
tp9634
aa(lp9635
(I11
F0.0745
tp9636
a(F743.0
F274.0
tp9637
a(F1025.0
F586.0
tp9638
aaaaa(lp9639
(I4
F0.4107
tp9640
a(lp9641
(I12
F0.0136
tp9642
a(lp9643
(I10
F0.0135
tp9644
a(lp9645
(I5
F0.0871
tp9646
a(F735.0
F57.0
tp9647
a(lp9648
(I15
F0.0962
tp9649
a(F696.0
F120.0
tp9650
a(F1001.0
F222.0
tp9651
aaa(F536.0
F243.0
tp9652
aa(lp9653
(I3
F0.1382
tp9654
a(F842.0
F298.0
tp9655
a(F581.0
F622.0
tp9656
aaa(lp9657
(I11
F0.2238
tp9658
a(lp9659
(I13
F0.1491
tp9660
a(F798.0
F553.0
tp9661
a(lp9662
(I13
F0.1885
tp9663
a(F360.0
F530.0
tp9664
a(F225.0
F647.0
tp9665
aaa(lp9666
(I10
F2.2926
tp9667
a(F174.0
F716.0
tp9668
a(F53.0
F796.0
tp9669
aaaaa(lp9670
(I5
F0.1304
tp9671
a(lp9672
(I1
F0.0607
tp9673
a(lp9674
(I5
F0.0163
tp9675
a(lp9676
(I4
F0.3477
tp9677
a(lp9678
(I7
F0.0273
tp9679
a(lp9680
(I3
F0.0087
tp9681
a(lp9682
(I11
F0.0145
tp9683
a(lp9684
(I11
F-0.0306
tp9685
a(F758.0
F10.0
tp9686
a(F1019.0
F7.0
tp9687
aa(F857.0
F27.0
tp9688
aa(F829.0
F43.0
tp9689
aa(F1448.0
F81.0
tp9690
aa(lp9691
(I15
F0.0262
tp9692
a(lp9693
(I3
F-0.0075
tp9694
a(F1313.0
F3.0
tp9695
a(F1186.0
F14.0
tp9696
aa(F801.0
F37.0
tp9697
aaa(lp9698
(I13
F0.0437
tp9699
a(lp9700
(I3
F0.034
tp9701
a(lp9702
(I0
F0.0081
tp9703
a(F729.0
F44.0
tp9704
a(lp9705
(I15
F0.0252
tp9706
a(F1047.0
F24.0
tp9707
a(F828.0
F47.0
tp9708
aaa(lp9709
(I10
F0.329
tp9710
a(F747.0
F63.0
tp9711
a(F922.0
F54.0
tp9712
aaa(lp9713
(I8
F1.3738
tp9714
a(lp9715
(I14
F0.488
tp9716
a(lp9717
(I10
F0.1626
tp9718
a(F1167.0
F81.0
tp9719
a(F761.0
F97.0
tp9720
aa(F1011.0
F157.0
tp9721
aa(F646.0
F153.0
tp9722
aaaa(lp9723
(I12
F0.131
tp9724
a(lp9725
(I8
F0.0204
tp9726
a(lp9727
(I1
F0.0984
tp9728
a(F1305.0
F127.0
tp9729
a(lp9730
(I13
F0.0718
tp9731
a(F715.0
F94.0
tp9732
a(F941.0
F189.0
tp9733
aaa(F967.0
F235.0
tp9734
aa(lp9735
(I9
F0.0936
tp9736
a(lp9737
(I11
F0.0781
tp9738
a(lp9739
(I5
F0.0792
tp9740
a(F1058.0
F137.0
tp9741
a(F613.0
F171.0
tp9742
aa(F887.0
F217.0
tp9743
aa(lp9744
(I5
F0.1085
tp9745
a(lp9746
(I9
F0.1221
tp9747
a(F690.0
F233.0
tp9748
a(F596.0
F267.0
tp9749
aa(F626.0
F390.0
tp9750
aaaaa(lp9751
(I8
F0.2898
tp9752
a(lp9753
(I10
F0.011
tp9754
a(lp9755
(I15
F0.0662
tp9756
a(F965.0
F199.0
tp9757
a(lp9758
(I5
F0.1731
tp9759
a(F667.0
F175.0
tp9760
a(F572.0
F229.0
tp9761
aaa(F728.0
F493.0
tp9762
aa(lp9763
(I7
F0.188
tp9764
a(lp9765
(I10
F1.4677
tp9766
a(lp9767
(I13
F0.1372
tp9768
a(F523.0
F320.0
tp9769
a(F457.0
F654.0
tp9770
aa(F311.0
F653.0
tp9771
aa(lp9772
(I11
F0.2386
tp9773
a(F223.0
F753.0
tp9774
a(F78.0
F991.0
tp9775
aaaaa(lp9776
(I7
F0.1318
tp9777
a(lp9778
(I3
F0.0716
tp9779
a(lp9780
(I1
F0.0407
tp9781
a(lp9782
(I5
F0.0628
tp9783
a(lp9784
(I3
F0.0249
tp9785
a(lp9786
(I9
F0.0404
tp9787
a(lp9788
(I15
F0.0386
tp9789
a(lp9790
(I9
F0.0109
tp9791
a(lp9792
(I9
F-0.004
tp9793
a(lp9794
(I0
F0.1981
tp9795
a(F1319.0
F23.0
tp9796
a(lp9797
(I5
F-0.0174
tp9798
a(F823.0
F0.0
tp9799
a(F1123.0
F11.0
tp9800
aaa(F1113.0
F4.0
tp9801
aa(F1493.0
F40.0
tp9802
aa(lp9803
(I7
F0.0286
tp9804
a(F1055.0
F23.0
tp9805
a(F989.0
F58.0
tp9806
aaa(F1387.0
F116.0
tp9807
aa(lp9808
(I14
F0.6986
tp9809
a(F1387.0
F69.0
tp9810
a(F927.0
F82.0
tp9811
aaa(F730.0
F127.0
tp9812
aa(lp9813
(I15
F0.0648
tp9814
a(lp9815
(I9
F0.0606
tp9816
a(lp9817
(I1
F0.0516
tp9818
a(F844.0
F32.0
tp9819
a(F1153.0
F78.0
tp9820
aa(F925.0
F140.0
tp9821
aa(lp9822
(I10
F0.2287
tp9823
a(F715.0
F77.0
tp9824
a(F809.0
F233.0
tp9825
aaaa(lp9826
(I11
F0.2138
tp9827
a(lp9828
(I5
F0.1024
tp9829
a(lp9830
(I9
F0.0819
tp9831
a(lp9832
(I10
F0.5356
tp9833
a(F1247.0
F116.0
tp9834
a(F741.0
F148.0
tp9835
aa(lp9836
(I2
F0.0052
tp9837
a(F823.0
F151.0
tp9838
a(lp9839
(I13
F0.0957
tp9840
a(F870.0
F224.0
tp9841
a(F565.0
F225.0
tp9842
aaaa(lp9843
(I10
F0.0409
tp9844
a(lp9845
(I13
F0.1001
tp9846
a(F682.0
F111.0
tp9847
a(F778.0
F197.0
tp9848
aa(lp9849
(I13
F0.1396
tp9850
a(lp9851
(I15
F0.0879
tp9852
a(F901.0
F327.0
tp9853
a(F495.0
F304.0
tp9854
aa(F407.0
F403.0
tp9855
aaaa(F312.0
F458.0
tp9856
aaa(lp9857
(I4
F0.4541
tp9858
a(lp9859
(I14
F0.3267
tp9860
a(lp9861
(I11
F0.0978
tp9862
a(F1150.0
F83.0
tp9863
a(lp9864
(I7
F0.198
tp9865
a(F840.0
F263.0
tp9866
a(F744.0
F149.0
tp9867
aaa(F564.0
F601.0
tp9868
aa(lp9869
(I9
F0.1767
tp9870
a(lp9871
(I0
F1.0285
tp9872
a(F420.0
F416.0
tp9873
a(F309.0
F517.0
tp9874
aa(lp9875
(I7
F0.2401
tp9876
a(F166.0
F626.0
tp9877
a(F94.0
F1128.0
tp9878
aaaaa(lp9879
(I9
F0.1499
tp9880
a(lp9881
(I13
F0.0697
tp9882
a(lp9883
(I1
F0.0522
tp9884
a(lp9885
(I11
F0.015
tp9886
a(lp9887
(I9
F0.0158
tp9888
a(lp9889
(I5
F0.0174
tp9890
a(lp9891
(I14
F0.0083
tp9892
a(lp9893
(I4
F0.2397
tp9894
a(F1127.0
F12.0
tp9895
a(F847.0
F1.0
tp9896
aa(lp9897
(I15
F0.0276
tp9898
a(lp9899
(I10
F0.5941
tp9900
a(F936.0
F1.0
tp9901
a(F889.0
F4.0
tp9902
aa(F954.0
F39.0
tp9903
aaa(lp9904
(I15
F0.0211
tp9905
a(F814.0
F24.0
tp9906
a(F736.0
F48.0
tp9907
aaa(F1171.0
F50.0
tp9908
aa(lp9909
(I15
F0.0748
tp9910
a(lp9911
(I4
F0.335
tp9912
a(lp9913
(I2
F0.0439
tp9914
a(F1289.0
F68.0
tp9915
a(F845.0
F25.0
tp9916
aa(lp9917
(I11
F0.0343
tp9918
a(F1045.0
F44.0
tp9919
a(F1205.0
F108.0
tp9920
aaa(F782.0
F86.0
tp9921
aaa(lp9922
(I5
F0.1251
tp9923
a(lp9924
(I2
F0.2427
tp9925
a(lp9926
(I11
F0.0636
tp9927
a(F766.0
F47.0
tp9928
a(F754.0
F93.0
tp9929
aa(lp9930
(I7
F0.0678
tp9931
a(lp9932
(I1
F0.0818
tp9933
a(F1130.0
F110.0
tp9934
a(F740.0
F123.0
tp9935
aa(F667.0
F151.0
tp9936
aaa(F631.0
F161.0
tp9937
aaa(lp9938
(I1
F0.0859
tp9939
a(lp9940
(I4
F0.0071
tp9941
a(lp9942
(I13
F0.1035
tp9943
a(F747.0
F87.0
tp9944
a(F845.0
F66.0
tp9945
aa(lp9946
(I9
F0.0825
tp9947
a(F1162.0
F246.0
tp9948
a(F816.0
F261.0
tp9949
aaa(lp9950
(I8
F0.2809
tp9951
a(lp9952
(I14
F0.1838
tp9953
a(lp9954
(I3
F0.119
tp9955
a(F704.0
F123.0
tp9956
a(F1069.0
F301.0
tp9957
aa(F511.0
F273.0
tp9958
aa(lp9959
(I13
F0.1306
tp9960
a(lp9961
(I5
F0.1121
tp9962
a(F826.0
F281.0
tp9963
a(F701.0
F492.0
tp9964
aa(F430.0
F496.0
tp9965
aaaaa(lp9966
(I8
F0.1928
tp9967
a(lp9968
(I2
F0.0136
tp9969
a(lp9970
(I1
F0.1522
tp9971
a(F910.0
F92.0
tp9972
a(F863.0
F244.0
tp9973
aa(F485.0
F279.0
tp9974
aa(lp9975
(I5
F0.2011
tp9976
a(lp9977
(I7
F0.1423
tp9978
a(F842.0
F611.0
tp9979
a(F301.0
F648.0
tp9980
aa(lp9981
(I13
F0.2531
tp9982
a(F159.0
F681.0
tp9983
a(F103.0
F1282.0
tp9984
aaaaa(lp9985
(I1
F0.1284
tp9986
a(lp9987
(I9
F0.067
tp9988
a(lp9989
(I3
F0.0408
tp9990
a(lp9991
(I7
F0.0274
tp9992
a(lp9993
(I11
F0.0188
tp9994
a(lp9995
(I5
F0.0225
tp9996
a(lp9997
(I13
F0.0037
tp9998
a(lp9999
(I3
F-0.0084
tp10000
a(lp10001
(I7
F-0.0121
tp10002
a(F1.311
F1.0
tp10003
a(F803.0
F3.0
tp10004
aa(F1086.0
F10.0
tp10005
aa(F1461.0
F26.0
tp10006
aa(F737.0
F46.0
tp10007
aa(lp10008
(I0
F0.1785
tp10009
a(F979.0
F28.0
tp10010
a(F1047.0
F51.0
tp10011
aaa(lp10012
(I8
F1.0818
tp10013
a(lp10014
(I9
F0.0375
tp10015
a(lp10016
(I5
F0.0124
tp10017
a(F1198.0
F37.0
tp10018
a(lp10019
(I2
F0.0682
tp10020
a(F745.0
F54.0
tp10021
a(F834.0
F37.0
tp10022
aaa(F736.0
F77.0
tp10023
aa(F805.0
F101.0
tp10024
aaa(lp10025
(I13
F0.0571
tp10026
a(lp10027
(I15
F0.0413
tp10028
a(lp10029
(I10
F0.1975
tp10030
a(F896.0
F82.0
tp10031
a(F1125.0
F56.0
tp10032
aa(F1131.0
F152.0
tp10033
aa(F1202.0
F263.0
tp10034
aaa(lp10035
(I12
F0.3384
tp10036
a(lp10037
(I5
F0.0925
tp10038
a(lp10039
(I13
F0.094
tp10040
a(F1314.0
F226.0
tp10041
a(F1359.0
F118.0
tp10042
aa(lp10043
(I11
F0.1267
tp10044
a(F916.0
F166.0
tp10045
a(F604.0
F186.0
tp10046
aaa(lp10047
(I5
F0.1121
tp10048
a(lp10049
(I1
F0.0709
tp10050
a(F1228.0
F260.0
tp10051
a(lp10052
(I15
F0.0829
tp10053
a(F829.0
F206.0
tp10054
a(F563.0
F266.0
tp10055
aaa(F640.0
F508.0
tp10056
aaaa(lp10057
(I6
F0.5264
tp10058
a(lp10059
(I12
F0.232
tp10060
a(lp10061
(I0
F0.0111
tp10062
a(lp10063
(I9
F0.1242
tp10064
a(F673.0
F115.0
tp10065
a(lp10066
(I7
F0.1825
tp10067
a(F659.0
F199.0
tp10068
a(F658.0
F148.0
tp10069
aaa(F1113.0
F477.0
tp10070
aa(lp10071
(I5
F0.1678
tp10072
a(F665.0
F430.0
tp10073
a(F275.0
F540.0
tp10074
aaa(lp10075
(I15
F0.1721
tp10076
a(lp10077
(I13
F0.1356
tp10078
a(F595.0
F378.0
tp10079
a(F422.0
F874.0
tp10080
aa(lp10081
(I1
F0.2533
tp10082
a(F159.0
F624.0
tp10083
a(F62.0
F885.0
tp10084
aaaaa(lp10085
(I5
F0.1272
tp10086
a(lp10087
(I13
F0.0599
tp10088
a(lp10089
(I7
F0.0313
tp10090
a(lp10091
(I11
F0.1041
tp10092
a(lp10093
(I13
F0.0091
tp10094
a(lp10095
(I11
F0.0093
tp10096
a(lp10097
(I5
F0.0115
tp10098
a(lp10099
(I14
F0.0441
tp10100
a(F1468.0
F17.0
tp10101
a(lp10102
(I2
F0.2837
tp10103
a(F803.0
F0.0
tp10104
a(F948.0
F5.0
tp10105
aaa(F759.0
F22.0
tp10106
aa(F1201.0
F56.0
tp10107
aa(lp10108
(I11
F0.0156
tp10109
a(lp10110
(I14
F0.2827
tp10111
a(F785.0
F28.0
tp10112
a(F809.0
F12.0
tp10113
aa(lp10114
(I6
F0.403
tp10115
a(F1211.0
F95.0
tp10116
a(F852.0
F39.0
tp10117
aaaa(F778.0
F160.0
tp10118
aa(lp10119
(I3
F0.0774
tp10120
a(lp10121
(I5
F0.0201
tp10122
a(lp10123
(I9
F0.0056
tp10124
a(F1004.0
F22.0
tp10125
a(F804.0
F42.0
tp10126
aa(lp10127
(I15
F0.0587
tp10128
a(lp10129
(I13
F0.0381
tp10130
a(F1412.0
F61.0
tp10131
a(F906.0
F92.0
tp10132
aa(F992.0
F134.0
tp10133
aaa(F1056.0
F176.0
tp10134
aaa(lp10135
(I4
F0.0987
tp10136
a(lp10137
(I12
F0.0126
tp10138
a(lp10139
(I3
F0.1133
tp10140
a(lp10141
(I15
F0.1083
tp10142
a(F1113.0
F110.0
tp10143
a(F1034.0
F58.0
tp10144
aa(F703.0
F153.0
tp10145
aa(lp10146
(I1
F0.0767
tp10147
a(F690.0
F122.0
tp10148
a(F582.0
F220.0
tp10149
aaa(lp10150
(I15
F0.0928
tp10151
a(lp10152
(I3
F0.113
tp10153
a(lp10154
(I7
F0.0432
tp10155
a(F842.0
F117.0
tp10156
a(lp10157
(I9
F0.0847
tp10158
a(F1098.0
F199.0
tp10159
a(F614.0
F184.0
tp10160
aaa(F577.0
F232.0
tp10161
aa(lp10162
(I5
F0.0944
tp10163
a(F514.0
F234.0
tp10164
a(F541.0
F388.0
tp10165
aaaaa(lp10166
(I10
F0.077
tp10167
a(lp10168
(I12
F0.0001
tp10169
a(lp10170
(I15
F0.0745
tp10171
a(F1006.0
F171.0
tp10172
a(F1120.0
F332.0
tp10173
aa(F501.0
F319.0
tp10174
aa(lp10175
(I13
F0.1806
tp10176
a(lp10177
(I10
F0.68
tp10178
a(F895.0
F601.0
tp10179
a(lp10180
(I5
F0.158
tp10181
a(F442.0
F428.0
tp10182
a(F319.0
F463.0
tp10183
aaa(lp10184
(I5
F0.2067
tp10185
a(F282.0
F530.0
tp10186
a(lp10187
(I0
F2.5525
tp10188
a(F172.0
F982.0
tp10189
a(F48.0
F775.0
tp10190
aaaaaa(lp10191
(I1
F0.1152
tp10192
a(lp10193
(I9
F0.0558
tp10194
a(lp10195
(I5
F0.0494
tp10196
a(lp10197
(I13
F0.0405
tp10198
a(lp10199
(I15
F0.018
tp10200
a(lp10201
(I1
F-0.0088
tp10202
a(lp10203
(I10
F0.1723
tp10204
a(F927.0
F7.0
tp10205
a(F1404.0
F0.0
tp10206
aa(lp10207
(I2
F0.0844
tp10208
a(F883.0
F34.0
tp10209
a(lp10210
(I9
F0.0002
tp10211
a(F1138.0
F32.0
tp10212
a(F1300.0
F12.0
tp10213
aaaa(lp10214
(I5
F0.0273
tp10215
a(lp10216
(I15
F0.07
tp10217
a(lp10218
(I4
F0.1754
tp10219
a(F942.0
F11.0
tp10220
a(F1211.0
F34.0
tp10221
aa(F1241.0
F54.0
tp10222
aa(F1052.0
F70.0
tp10223
aaa(lp10224
(I3
F0.0259
tp10225
a(F942.0
F38.0
tp10226
a(F778.0
F77.0
tp10227
aaa(lp10228
(I13
F0.064
tp10229
a(lp10230
(I4
F0.7872
tp10231
a(F1161.0
F110.0
tp10232
a(F964.0
F121.0
tp10233
aa(F718.0
F164.0
tp10234
aaa(lp10235
(I10
F0.0887
tp10236
a(lp10237
(I4
F0.0578
tp10238
a(lp10239
(I3
F0.0896
tp10240
a(lp10241
(I15
F0.1029
tp10242
a(F892.0
F85.0
tp10243
a(F886.0
F46.0
tp10244
aa(F656.0
F114.0
tp10245
aa(F644.0
F186.0
tp10246
aa(lp10247
(I5
F0.0841
tp10248
a(lp10249
(I11
F0.1245
tp10250
a(lp10251
(I15
F0.0748
tp10252
a(lp10253
(I2
F0.8224
tp10254
a(F1003.0
F104.0
tp10255
a(F694.0
F109.0
tp10256
aa(F765.0
F205.0
tp10257
aa(F560.0
F230.0
tp10258
aa(lp10259
(I13
F0.1154
tp10260
a(F1055.0
F361.0
tp10261
a(F527.0
F382.0
tp10262
aaaaa(lp10263
(I10
F0.4444
tp10264
a(lp10265
(I8
F0.0071
tp10266
a(lp10267
(I2
F0.1609
tp10268
a(F2502.0
F472.0
tp10269
a(F586.0
F225.0
tp10270
aa(lp10271
(I7
F0.1423
tp10272
a(F960.0
F406.0
tp10273
a(F405.0
F490.0
tp10274
aaa(lp10275
(I13
F0.168
tp10276
a(lp10277
(I7
F0.1073
tp10278
a(F835.0
F460.0
tp10279
a(F715.0
F811.0
tp10280
aa(lp10281
(I11
F0.2861
tp10282
a(lp10283
(I7
F0.1953
tp10284
a(F257.0
F578.0
tp10285
a(F130.0
F714.0
tp10286
aa(F60.0
F925.0
tp10287
aaaaa(lp10288
(I7
F0.1188
tp10289
a(lp10290
(I9
F0.0835
tp10291
a(lp10292
(I3
F0.0327
tp10293
a(lp10294
(I9
F0.0535
tp10295
a(lp10296
(I13
F0.0538
tp10297
a(lp10298
(I13
F0.0108
tp10299
a(lp10300
(I2
F0.2849
tp10301
a(lp10302
(I1
F0.0005
tp10303
a(lp10304
(I14
F0.3984
tp10305
a(F1155.0
F38.0
tp10306
a(F815.0
F11.0
tp10307
aa(F778.0
F37.0
tp10308
aa(lp10309
(I7
F0.0054
tp10310
a(lp10311
(I14
F0.1411
tp10312
a(F910.0
F0.0
tp10313
a(F871.0
F5.0
tp10314
aa(F956.0
F19.0
tp10315
aaa(lp10316
(I15
F0.036
tp10317
a(lp10318
(I9
F0.0176
tp10319
a(F1006.0
F14.0
tp10320
a(F1006.0
F26.0
tp10321
aa(F1318.0
F83.0
tp10322
aaa(F741.0
F75.0
tp10323
aa(F715.0
F89.0
tp10324
aa(lp10325
(I1
F0.1161
tp10326
a(lp10327
(I9
F0.0565
tp10328
a(lp10329
(I4
F0.3149
tp10330
a(lp10331
(I14
F0.0013
tp10332
a(F971.0
F48.0
tp10333
a(F753.0
F60.0
tp10334
aa(lp10335
(I5
F0.0491
tp10336
a(F1141.0
F78.0
tp10337
a(F1249.0
F172.0
tp10338
aaa(lp10339
(I15
F0.071
tp10340
a(F1441.0
F171.0
tp10341
a(F636.0
F162.0
tp10342
aaa(F1060.0
F274.0
tp10343
aaa(lp10344
(I8
F0.2569
tp10345
a(lp10346
(I4
F0.0153
tp10347
a(lp10348
(I5
F0.0848
tp10349
a(F1271.0
F140.0
tp10350
a(F989.0
F206.0
tp10351
aa(F900.0
F260.0
tp10352
aa(lp10353
(I9
F0.1843
tp10354
a(lp10355
(I0
F0.3602
tp10356
a(F897.0
F208.0
tp10357
a(lp10358
(I5
F0.1122
tp10359
a(F1162.0
F382.0
tp10360
a(F574.0
F350.0
tp10361
aaa(F272.0
F518.0
tp10362
aaaa(lp10363
(I12
F0.2985
tp10364
a(lp10365
(I5
F0.1419
tp10366
a(lp10367
(I6
F0.0085
tp10368
a(F1369.0
F104.0
tp10369
a(F700.0
F171.0
tp10370
aa(lp10371
(I9
F0.2047
tp10372
a(F1011.0
F472.0
tp10373
a(F628.0
F218.0
tp10374
aaa(lp10375
(I1
F0.2073
tp10376
a(lp10377
(I13
F0.1258
tp10378
a(F683.0
F390.0
tp10379
a(lp10380
(I14
F1.104
tp10381
a(F379.0
F456.0
tp10382
a(F332.0
F799.0
tp10383
aaa(lp10384
(I9
F0.2676
tp10385
a(F143.0
F635.0
tp10386
a(F69.0
F888.0
tp10387
aaaaa.